Certificate:
    Data:
        Version: 3 (0x2)
        Serial Number: 305419896 (0x12345678)
        Signature Algorithm: sha256WithRSAEncryption
        Issuer: CN=CA1_sha256_4096_65537_v3_ca
        Validity
            Not Before: Sep 20 13:15:27 2022 GMT
            Not After : Sep 15 13:15:27 2042 GMT
        Subject: CN=SRK1_sha256_4096_65537_v3_ca
        Subject Public Key Info:
            Public Key Algorithm: rsaEncryption
                RSA Public-Key: (4096 bit)
                Modulus:
                    00:b8:c9:41:ca:59:70:ed:f6:1c:45:15:d0:06:66:
                    5f:24:2b:80:f9:ba:09:08:83:66:74:13:4c:c7:4a:
                    c3:69:b1:5c:e5:de:c6:5f:a5:eb:8e:5e:63:4f:5f:
                    ea:ed:13:93:94:d6:30:54:9f:8f:b8:3c:d4:90:02:
                    97:5f:fb:86:fa:ea:17:8b:1d:62:ac:72:c4:70:bd:
                    0b:8e:4f:95:cb:b4:32:36:c0:91:5f:10:f0:e0:c1:
                    81:e3:9d:2b:5a:4f:10:76:dc:55:1e:2f:9e:25:90:
                    cb:6f:0c:b1:37:3b:87:74:c0:71:43:a4:fa:ca:7c:
                    1f:46:64:e0:90:7e:a5:47:8b:1b:4e:9a:d1:d4:f9:
                    15:1e:c3:dc:80:31:00:4e:b6:2b:c9:c6:f3:ce:18:
                    74:e4:fb:19:b5:1b:77:42:f1:41:6d:ce:92:ca:54:
                    9a:d9:5a:97:e5:ea:9d:2a:ea:86:3f:64:08:87:b0:
                    1c:9a:5e:ab:87:2f:a0:42:86:dd:ef:5e:cc:d3:ae:
                    74:1d:0f:2a:d0:01:f4:8c:7d:af:5c:82:7a:4b:7b:
                    42:30:b1:4e:57:e6:46:97:46:3b:36:e8:a9:99:4f:
                    9f:fc:98:aa:84:bf:2b:05:91:cf:25:84:7e:a5:5e:
                    66:ae:c4:66:fa:68:ab:a8:85:f3:8a:fe:4f:37:36:
                    01:e8:f2:b7:d7:b6:21:1f:f9:a9:85:30:dc:b9:53:
                    ff:d3:ed:03:56:da:37:b3:e5:9f:6f:df:dc:f7:c2:
                    10:17:8a:2b:6f:c2:08:03:e6:d4:4e:4e:0e:f0:f1:
                    6d:45:23:1e:90:71:de:01:0a:7a:60:e3:71:3b:9e:
                    bc:ed:c2:4b:f2:29:8d:c8:ca:f8:59:17:f2:c8:5b:
                    90:84:e3:af:69:7b:32:c3:dc:17:6e:be:23:52:ab:
                    6a:2e:cb:da:74:9b:6b:23:8f:85:73:bb:82:9e:51:
                    97:df:a7:9c:fc:bf:17:27:4b:e9:f9:72:d3:a2:08:
                    d6:50:ad:a9:06:68:87:15:3a:36:46:22:82:2c:fe:
                    cf:81:dc:4e:f5:28:59:01:8b:8b:b9:3f:a0:bb:f4:
                    f2:4c:c3:ea:87:ad:51:1e:89:51:af:0d:94:43:ec:
                    68:df:f8:34:b3:02:df:16:1c:74:e2:cf:1a:a5:3c:
                    b1:bb:92:0b:4a:f4:c5:05:76:86:86:35:52:2c:d2:
                    60:f8:b4:19:6b:ce:58:0e:dd:eb:d6:5a:9b:07:0f:
                    8c:34:ba:80:da:f2:22:20:31:1f:ea:e0:d7:2b:f0:
                    88:47:78:02:64:f7:0d:41:46:ac:9a:cc:53:ee:cc:
                    1f:81:90:cf:a5:25:5e:0d:00:df:7e:14:b5:2e:22:
                    d7:b4:41
                Exponent: 65537 (0x10001)
        X509v3 extensions:
            X509v3 Subject Key Identifier: 
                16:3C:CA:37:08:78:BF:45:10:13:0E:64:F5:3B:FF:A8:FA:3C:DE:1C
            X509v3 Authority Key Identifier: 
                keyid:A7:18:6C:65:C9:0E:27:C7:24:66:00:07:50:32:AE:F6:AA:78:9B:ED
                DirName:/CN=CA1_sha256_4096_65537_v3_ca
                serial:24:09:92:5B:DF:92:4D:82:82:E1:96:BD:80:D6:07:DB:CA:9C:58:64

            X509v3 Basic Constraints: critical
                CA:TRUE
            X509v3 Key Usage: 
                Certificate Sign
    Signature Algorithm: sha256WithRSAEncryption
         60:4a:d0:3d:56:66:6b:f0:bf:d5:06:27:fb:1c:a2:2b:4c:4b:
         54:81:8c:49:a1:42:a5:ce:e6:6e:79:93:8f:1c:4e:3f:84:b4:
         0c:5e:f6:42:c8:3f:e3:9b:c5:b6:58:64:2c:c9:88:04:6e:ba:
         ad:49:61:7c:f6:6d:dd:a3:fa:78:28:69:e8:53:f0:5e:9a:e5:
         63:0b:49:00:02:da:30:0f:b4:fb:76:3f:96:64:7e:44:f6:4b:
         9b:bd:ab:5f:af:21:26:35:b7:ff:5b:80:9c:b2:13:45:5b:ee:
         4e:53:ae:9a:7d:db:5e:fc:ad:c7:d5:29:29:91:de:0e:d9:31:
         cf:57:99:8c:cc:3b:56:26:ca:07:dc:50:b0:0b:40:84:32:19:
         61:54:45:ea:2a:54:09:29:59:e6:7b:a9:88:62:ac:4b:6c:4e:
         b2:18:6c:37:0a:42:56:e7:80:5d:2c:f8:c4:4f:6b:1d:49:a9:
         2f:85:87:c3:e5:5f:7b:6e:bb:32:aa:9f:ec:b8:9d:a6:6d:c1:
         45:70:6e:e2:66:64:af:09:92:62:bb:72:62:75:31:2c:1f:9a:
         d8:7f:48:8e:c9:27:39:26:eb:fa:2f:1e:9c:e6:8e:42:42:d8:
         46:4c:74:fa:45:4f:89:c7:b5:d0:58:84:f5:29:fe:51:25:d4:
         df:b1:11:5f:ec:65:17:04:d7:f8:be:79:7b:73:e7:a4:6c:89:
         26:80:60:25:11:be:c5:34:05:e6:35:da:23:0b:1b:ba:51:85:
         81:c6:fe:90:ab:d8:43:c9:4b:4a:6b:3e:86:f2:ab:8a:c9:be:
         1e:d5:ef:b8:22:03:c4:d0:37:83:b8:e5:fc:72:80:25:9b:46:
         ba:df:8d:d1:23:b8:c1:81:c0:b5:ad:c4:5d:61:38:8d:c7:e7:
         d9:58:03:55:e0:29:5e:ed:6f:c3:7d:f1:7b:db:65:9c:e6:a4:
         d6:aa:97:bf:e0:75:36:29:e8:45:15:86:ac:13:95:64:1d:79:
         c4:43:a2:4f:87:31:1d:d5:09:1e:8d:73:1f:5a:4a:23:35:c4:
         95:a4:d3:3b:f8:6d:d6:4f:ed:be:61:bc:25:22:ee:dd:7d:b1:
         77:32:c4:9d:20:78:67:05:df:c3:57:21:97:c7:d4:8d:15:70:
         05:1d:fd:ea:30:35:88:b7:e1:e1:32:44:59:49:07:07:96:7f:
         40:9a:8b:59:c4:dc:4d:78:8b:0f:11:ed:11:d2:f1:fb:99:e8:
         6e:0e:5a:60:97:d1:64:5c:96:23:e0:09:1a:bf:70:25:1d:33:
         1e:52:47:00:51:f0:b9:ad:e9:86:a5:8a:17:a3:f1:67:20:8a:
         00:3d:2e:57:21:45:c4:be
-----BEGIN CERTIFICATE-----
MIIFbzCCA1egAwIBAgIEEjRWeDANBgkqhkiG9w0BAQsFADAmMSQwIgYDVQQDFBtD
QTFfc2hhMjU2XzQwOTZfNjU1MzdfdjNfY2EwHhcNMjIwOTIwMTMxNTI3WhcNNDIw
OTE1MTMxNTI3WjAnMSUwIwYDVQQDDBxTUksxX3NoYTI1Nl80MDk2XzY1NTM3X3Yz
X2NhMIICIjANBgkqhkiG9w0BAQEFAAOCAg8AMIICCgKCAgEAuMlByllw7fYcRRXQ
BmZfJCuA+boJCINmdBNMx0rDabFc5d7GX6Xrjl5jT1/q7ROTlNYwVJ+PuDzUkAKX
X/uG+uoXix1irHLEcL0Ljk+Vy7QyNsCRXxDw4MGB450rWk8QdtxVHi+eJZDLbwyx
NzuHdMBxQ6T6ynwfRmTgkH6lR4sbTprR1PkVHsPcgDEATrYrycbzzhh05PsZtRt3
QvFBbc6SylSa2VqX5eqdKuqGP2QIh7Acml6rhy+gQobd717M0650HQ8q0AH0jH2v
XIJ6S3tCMLFOV+ZGl0Y7NuipmU+f/JiqhL8rBZHPJYR+pV5mrsRm+mirqIXziv5P
NzYB6PK317YhH/mphTDcuVP/0+0DVto3s+Wfb9/c98IQF4orb8IIA+bUTk4O8PFt
RSMekHHeAQp6YONxO5687cJL8imNyMr4WRfyyFuQhOOvaXsyw9wXbr4jUqtqLsva
dJtrI4+Fc7uCnlGX36ec/L8XJ0vp+XLTogjWUK2pBmiHFTo2RiKCLP7PgdxO9ShZ
AYuLuT+gu/TyTMPqh61RHolRrw2UQ+xo3/g0swLfFhx04s8apTyxu5ILSvTFBXaG
hjVSLNJg+LQZa85YDt3r1lqbBw+MNLqA2vIiIDEf6uDXK/CIR3gCZPcNQUasmsxT
7swfgZDPpSVeDQDffhS1LiLXtEECAwEAAaOBozCBoDAdBgNVHQ4EFgQUFjzKNwh4
v0UQEw5k9Tv/qPo83hwwYQYDVR0jBFowWIAUpxhsZckOJ8ckZgAHUDKu9qp4m+2h
KqQoMCYxJDAiBgNVBAMUG0NBMV9zaGEyNTZfNDA5Nl82NTUzN192M19jYYIUJAmS
W9+STYKC4Za9gNYH28qcWGQwDwYDVR0TAQH/BAUwAwEB/zALBgNVHQ8EBAMCAgQw
DQYJKoZIhvcNAQELBQADggIBAGBK0D1WZmvwv9UGJ/scoitMS1SBjEmhQqXO5m55
k48cTj+EtAxe9kLIP+ObxbZYZCzJiARuuq1JYXz2bd2j+ngoaehT8F6a5WMLSQAC
2jAPtPt2P5ZkfkT2S5u9q1+vISY1t/9bgJyyE0Vb7k5Trpp92178rcfVKSmR3g7Z
Mc9XmYzMO1YmygfcULALQIQyGWFUReoqVAkpWeZ7qYhirEtsTrIYbDcKQlbngF0s
+MRPax1JqS+Fh8PlX3tuuzKqn+y4naZtwUVwbuJmZK8JkmK7cmJ1MSwfmth/SI7J
Jzkm6/ovHpzmjkJC2EZMdPpFT4nHtdBYhPUp/lEl1N+xEV/sZRcE1/i+eXtz56Rs
iSaAYCURvsU0BeY12iMLG7pRhYHG/pCr2EPJS0prPobyq4rJvh7V77giA8TQN4O4
5fxygCWbRrrfjdEjuMGBwLWtxF1hOI3H59lYA1XgKV7tb8N98XvbZZzmpNaql7/g
dTYp6EUVhqwTlWQdecRDok+HMR3VCR6Ncx9aSiM1xJWk0zv4bdZP7b5hvCUi7t19
sXcyxJ0geGcF38NXIZfH1I0VcAUd/eowNYi34eEyRFlJBweWf0Cai1nE3E14iw8R
7RHS8fuZ6G4OWmCX0WRcliPgCRq/cCUdMx5SRwBR8Lmt6Yalihej8WcgigA9Llch
RcS+
-----END CERTIFICATE-----
