Certificate:
    Data:
        Version: 3 (0x2)
        Serial Number: 305419907 (0x12345683)
        Signature Algorithm: sha256WithRSAEncryption
        Issuer: CN=SRK4_sha256_4096_65537_v3_ca
        Validity
            Not Before: Sep 20 13:15:33 2022 GMT
            Not After : Sep 15 13:15:33 2042 GMT
        Subject: CN=IMG4_1_sha256_4096_65537_v3_usr
        Subject Public Key Info:
            Public Key Algorithm: rsaEncryption
                RSA Public-Key: (4096 bit)
                Modulus:
                    00:b6:42:b0:a3:cf:69:38:a3:94:3c:4f:bd:ae:f1:
                    9b:59:b7:d4:e2:06:61:47:63:c0:76:bc:e8:f0:e8:
                    f9:06:f2:ab:f2:cf:22:78:87:7f:a9:92:3e:16:aa:
                    5f:1b:3c:aa:26:37:ba:e9:e1:53:63:b7:a0:03:fd:
                    db:1f:6d:74:f4:7c:2f:9c:fe:f7:bd:f3:72:65:2c:
                    c8:e4:44:b8:2f:95:19:af:a2:19:6a:2d:8a:6c:55:
                    77:c7:11:34:b0:12:6c:2d:ec:1f:98:39:09:03:39:
                    fd:1f:29:7d:48:17:ce:39:f4:04:71:67:c6:70:92:
                    30:6f:d8:7e:b0:99:b4:15:8d:53:ac:1d:a4:93:70:
                    90:96:f5:58:b4:ab:35:f5:39:4e:3c:e2:23:f5:81:
                    e0:1d:8f:d5:ee:ea:7c:80:e3:bd:9e:31:af:06:2e:
                    7e:02:db:0e:12:11:4b:05:1c:05:ca:b9:8a:75:d6:
                    6b:cf:de:93:03:6f:42:b1:dc:34:3d:c5:e3:80:c9:
                    5f:2d:92:86:36:7d:a1:fe:c1:b9:7c:3a:53:9f:4f:
                    ae:e9:09:4c:cd:0d:a8:23:bd:f7:b2:f3:37:68:a4:
                    30:61:0a:9a:63:d9:5a:49:68:e2:87:de:22:0e:93:
                    74:24:dd:b0:c0:16:c9:94:b7:af:9a:a5:ee:52:74:
                    24:1d:13:7d:16:d0:e1:fc:49:fe:54:98:67:f7:e4:
                    50:29:d0:2e:d5:8c:50:1d:49:94:71:23:ce:86:0f:
                    d2:c0:2b:3d:d0:97:c7:84:5b:24:27:bc:ff:93:49:
                    70:9f:df:d0:10:a1:b0:e2:e3:64:12:dc:21:e2:9d:
                    08:28:71:fe:32:e9:0e:83:b6:27:70:28:55:4f:40:
                    7e:8b:9b:7f:a0:e1:6c:06:0b:b8:4a:0d:eb:b1:75:
                    65:1b:46:e6:97:cc:a9:8a:dc:44:50:91:38:5c:5e:
                    b6:05:3e:a7:0b:a4:a9:cf:bf:4b:32:b3:d7:e0:3f:
                    19:c6:93:05:e7:03:6d:01:81:df:b8:7e:3c:de:52:
                    a0:c0:79:fb:50:d4:94:fd:d5:68:47:6e:0b:50:9a:
                    af:90:d2:ba:06:8f:7c:f9:60:38:6e:03:1d:3f:08:
                    de:be:46:48:9c:c8:d5:ba:6e:69:b9:bf:ab:24:6e:
                    31:ae:da:59:93:39:95:6f:af:3f:4b:b4:13:ad:c3:
                    af:90:33:a9:0f:65:e0:a8:50:08:6b:dd:a9:aa:9c:
                    23:e4:b8:5a:b4:49:66:46:96:5c:10:bc:a2:62:60:
                    d3:e8:11:35:7e:92:e3:74:e4:6b:e8:bd:ed:b1:ad:
                    53:ce:29:a1:d6:51:86:46:11:62:73:b9:00:f6:ec:
                    75:dc:cb
                Exponent: 65537 (0x10001)
        X509v3 extensions:
            X509v3 Basic Constraints: 
                CA:FALSE
            Netscape Comment: 
                OpenSSL Generated Certificate
            X509v3 Subject Key Identifier: 
                CE:CF:DC:BA:81:81:64:5F:39:8D:E7:B0:C3:6A:4F:4A:ED:48:DB:E4
            X509v3 Authority Key Identifier: 
                keyid:60:72:52:76:C0:6B:04:B9:96:1C:81:05:EB:E6:40:59:D2:BD:92:49

    Signature Algorithm: sha256WithRSAEncryption
         52:fe:36:9f:11:24:8c:18:00:d3:c4:68:71:cd:5b:09:e1:94:
         1a:5e:ad:07:66:22:72:c2:18:18:e7:9d:f1:46:9f:c2:a7:bf:
         66:1e:3d:92:72:33:d2:77:f6:cb:15:7b:76:9c:37:08:6b:71:
         9b:5c:ad:0d:c6:59:44:63:19:2e:1c:a5:95:05:bb:ad:af:11:
         f3:46:fa:b6:97:62:fb:74:a6:5c:49:9a:53:4e:da:75:7b:73:
         2f:17:de:50:1a:2a:80:02:39:a2:9f:80:b0:42:9c:19:03:70:
         86:b0:9a:31:9e:dc:f0:95:dd:9a:8c:56:44:0d:61:c1:53:cc:
         34:ad:d1:44:ae:7f:6a:89:dd:fa:1c:2b:df:3c:57:74:5c:50:
         8d:5c:79:b3:ae:54:47:d0:1e:42:d9:e5:c6:45:25:57:ca:f6:
         46:a7:92:24:e3:62:23:1f:88:cc:05:f9:c8:9e:91:2d:b3:1a:
         20:cf:ad:2e:60:a7:02:2d:dc:33:2e:05:76:c8:08:27:1d:3e:
         bc:3f:82:04:0b:e1:be:20:83:3f:72:a7:88:27:65:03:f8:85:
         c8:95:ae:a1:8a:fc:7c:06:07:26:43:06:f2:df:23:50:1b:34:
         71:d5:58:c0:5e:f5:e9:a1:0d:56:6a:87:53:c8:9e:b8:f8:a6:
         91:5c:5f:87:15:81:d6:31:64:85:80:75:29:ab:78:ab:15:25:
         ef:6f:3e:ad:e6:8e:5e:38:63:3b:f1:ff:3b:25:62:ef:98:e2:
         64:b1:75:74:e9:67:52:80:03:b2:b0:1a:a0:1b:02:e8:50:0c:
         a1:12:dc:2c:35:ee:92:38:2c:88:0f:4a:11:cb:b8:0a:4e:aa:
         13:c8:1b:7e:b7:20:0c:31:53:d3:73:11:3d:22:42:63:aa:2e:
         61:5f:06:77:fd:ff:5d:d8:78:a7:97:b8:40:c2:d8:b9:6f:79:
         49:fc:ec:c7:f8:1c:61:60:23:56:b2:f5:c0:80:50:4c:d3:a9:
         08:3b:b0:2a:14:1d:2b:7c:f6:35:b7:0f:e6:e5:94:fa:30:b7:
         d7:3f:95:29:77:d5:8c:6e:03:07:65:cb:8b:1c:18:f1:dd:20:
         60:b2:7c:11:dd:24:42:65:7d:10:9f:91:a6:99:3b:2f:9c:2f:
         ec:a0:a0:06:e9:5b:d0:14:60:98:cd:e9:6b:82:25:22:f2:27:
         ea:a4:68:8a:74:9f:81:46:c1:1b:6b:a4:3c:c2:18:a5:78:2c:
         05:dd:7d:6d:d2:36:07:31:99:08:fb:f0:b4:78:c3:55:1c:a3:
         f6:30:bc:10:b3:c1:11:56:90:b5:aa:cf:84:65:78:26:24:cc:
         31:44:fa:f0:d8:08:a6:8c
-----BEGIN CERTIFICATE-----
MIIFSjCCAzKgAwIBAgIEEjRWgzANBgkqhkiG9w0BAQsFADAnMSUwIwYDVQQDDBxT
Uks0X3NoYTI1Nl80MDk2XzY1NTM3X3YzX2NhMB4XDTIyMDkyMDEzMTUzM1oXDTQy
MDkxNTEzMTUzM1owKjEoMCYGA1UEAwwfSU1HNF8xX3NoYTI1Nl80MDk2XzY1NTM3
X3YzX3VzcjCCAiIwDQYJKoZIhvcNAQEBBQADggIPADCCAgoCggIBALZCsKPPaTij
lDxPva7xm1m31OIGYUdjwHa86PDo+Qbyq/LPIniHf6mSPhaqXxs8qiY3uunhU2O3
oAP92x9tdPR8L5z+973zcmUsyOREuC+VGa+iGWotimxVd8cRNLASbC3sH5g5CQM5
/R8pfUgXzjn0BHFnxnCSMG/YfrCZtBWNU6wdpJNwkJb1WLSrNfU5TjziI/WB4B2P
1e7qfIDjvZ4xrwYufgLbDhIRSwUcBcq5inXWa8/ekwNvQrHcND3F44DJXy2ShjZ9
of7BuXw6U59PrukJTM0NqCO997LzN2ikMGEKmmPZWklo4ofeIg6TdCTdsMAWyZS3
r5ql7lJ0JB0TfRbQ4fxJ/lSYZ/fkUCnQLtWMUB1JlHEjzoYP0sArPdCXx4RbJCe8
/5NJcJ/f0BChsOLjZBLcIeKdCChx/jLpDoO2J3AoVU9Afoubf6DhbAYLuEoN67F1
ZRtG5pfMqYrcRFCROFxetgU+pwukqc+/SzKz1+A/GcaTBecDbQGB37h+PN5SoMB5
+1DUlP3VaEduC1Car5DSugaPfPlgOG4DHT8I3r5GSJzI1bpuabm/qyRuMa7aWZM5
lW+vP0u0E63Dr5AzqQ9l4KhQCGvdqaqcI+S4WrRJZkaWXBC8omJg0+gRNX6S43Tk
a+i97bGtU84podZRhkYRYnO5APbsddzLAgMBAAGjezB5MAkGA1UdEwQCMAAwLAYJ
YIZIAYb4QgENBB8WHU9wZW5TU0wgR2VuZXJhdGVkIENlcnRpZmljYXRlMB0GA1Ud
DgQWBBTOz9y6gYFkXzmN57DDak9K7Ujb5DAfBgNVHSMEGDAWgBRgclJ2wGsEuZYc
gQXr5kBZ0r2SSTANBgkqhkiG9w0BAQsFAAOCAgEAUv42nxEkjBgA08Rocc1bCeGU
Gl6tB2YicsIYGOed8Uafwqe/Zh49knIz0nf2yxV7dpw3CGtxm1ytDcZZRGMZLhyl
lQW7ra8R80b6tpdi+3SmXEmaU07adXtzLxfeUBoqgAI5op+AsEKcGQNwhrCaMZ7c
8JXdmoxWRA1hwVPMNK3RRK5/aond+hwr3zxXdFxQjVx5s65UR9AeQtnlxkUlV8r2
RqeSJONiIx+IzAX5yJ6RLbMaIM+tLmCnAi3cMy4FdsgIJx0+vD+CBAvhviCDP3Kn
iCdlA/iFyJWuoYr8fAYHJkMG8t8jUBs0cdVYwF716aENVmqHU8ieuPimkVxfhxWB
1jFkhYB1Kat4qxUl728+reaOXjhjO/H/OyVi75jiZLF1dOlnUoADsrAaoBsC6FAM
oRLcLDXukjgsiA9KEcu4Ck6qE8gbfrcgDDFT03MRPSJCY6ouYV8Gd/3/Xdh4p5e4
QMLYuW95Sfzsx/gcYWAjVrL1wIBQTNOpCDuwKhQdK3z2NbcP5uWU+jC31z+VKXfV
jG4DB2XLixwY8d0gYLJ8Ed0kQmV9EJ+Rppk7L5wv7KCgBulb0BRgmM3pa4IlIvIn
6qRoinSfgUbBG2ukPMIYpXgsBd19bdI2BzGZCPvwtHjDVRyj9jC8ELPBEVaQtarP
hGV4JiTMMUT68NgIpow=
-----END CERTIFICATE-----
