Certificate:
    Data:
        Version: 3 (0x2)
        Serial Number: 305419898 (0x1234567a)
        Signature Algorithm: sha256WithRSAEncryption
        Issuer: CN=SRK1_sha256_4096_65537_v3_ca
        Validity
            Not Before: Sep 20 13:15:28 2022 GMT
            Not After : Sep 15 13:15:28 2042 GMT
        Subject: CN=IMG1_1_sha256_4096_65537_v3_usr
        Subject Public Key Info:
            Public Key Algorithm: rsaEncryption
                RSA Public-Key: (4096 bit)
                Modulus:
                    00:bc:e1:73:c6:28:b0:d9:45:68:32:4e:b9:5b:c6:
                    a1:c1:a6:7c:32:5a:9a:c5:36:cd:2f:4b:25:26:1e:
                    d8:bc:15:39:29:e5:f4:06:40:35:73:25:ff:3c:29:
                    c5:a1:3a:9c:d3:30:10:0a:da:58:e0:2d:ef:9f:73:
                    dc:c2:ad:96:28:c9:3d:ea:a7:dd:3f:ab:ca:c3:e7:
                    34:f9:67:11:bb:c5:6e:b9:22:06:18:37:08:31:ec:
                    ae:ce:11:0b:ea:f6:57:74:64:60:76:0f:8d:25:1b:
                    21:95:82:93:aa:95:43:aa:35:5a:17:d8:fe:7b:33:
                    36:e8:b1:86:59:c4:74:5f:c4:1a:35:22:c4:5e:1b:
                    16:ec:37:70:18:94:bb:dd:10:1f:61:6a:eb:c5:ef:
                    42:5c:dd:2b:b6:0b:85:08:46:fc:06:20:2f:4b:4c:
                    2e:fe:cd:65:99:0c:4f:91:62:27:40:f8:ce:56:6d:
                    8f:d7:72:dd:88:b6:30:1a:6a:d0:c4:1b:28:f6:3a:
                    22:a5:65:a2:4f:00:0c:c8:55:40:bb:33:84:99:42:
                    e8:55:58:d8:dd:df:75:8a:5b:1f:2d:a0:59:4f:be:
                    66:ec:91:09:4a:d3:5c:8b:a3:a6:8a:cd:99:95:cc:
                    6f:2e:9d:14:dc:66:9b:fe:7e:12:31:06:28:73:d2:
                    8a:9e:87:52:30:2c:13:6a:dc:b3:b0:e1:82:4c:5d:
                    db:d0:d3:6d:50:f5:60:8a:8d:82:69:09:c6:d4:38:
                    ce:42:bf:5f:f0:33:f5:07:9b:6c:a1:e1:ab:19:20:
                    26:02:73:ff:74:83:ac:d7:c5:21:89:3f:3a:d9:db:
                    9e:c5:95:22:d6:8a:a3:a0:25:cf:59:d7:1a:cd:2f:
                    c7:6e:89:71:fa:8f:86:a9:b8:51:0a:f6:d4:ad:30:
                    b5:79:42:28:46:f6:78:b2:69:af:b1:92:7c:ce:49:
                    27:61:a2:d5:63:7d:1b:88:c2:34:31:26:81:5b:b2:
                    82:94:23:21:54:f8:83:91:66:90:17:d9:bb:c7:7c:
                    09:25:95:3c:da:aa:6d:1c:48:74:a3:23:8d:e9:46:
                    2f:ac:75:a2:39:36:6d:c4:55:96:92:60:10:32:82:
                    65:00:58:9a:fa:bc:4e:40:38:3c:b6:a7:78:45:11:
                    f6:30:92:cc:89:ad:13:a3:fd:93:b4:d5:68:5c:1b:
                    bc:04:17:9c:7c:24:1b:47:8e:7b:df:fb:0c:0e:cc:
                    0e:54:94:5d:c3:b6:8a:8d:03:13:31:ca:5f:f6:09:
                    bf:7b:62:6a:9e:ae:f9:db:fc:94:5f:5c:90:d4:50:
                    85:ba:17:73:49:55:81:d6:36:ea:3f:92:c4:6f:30:
                    be:4e:7b
                Exponent: 65537 (0x10001)
        X509v3 extensions:
            X509v3 Basic Constraints: 
                CA:FALSE
            Netscape Comment: 
                OpenSSL Generated Certificate
            X509v3 Subject Key Identifier: 
                06:87:45:D6:2E:5D:58:63:C5:F0:B2:55:A8:2F:D1:E0:EC:44:A3:D9
            X509v3 Authority Key Identifier: 
                keyid:16:3C:CA:37:08:78:BF:45:10:13:0E:64:F5:3B:FF:A8:FA:3C:DE:1C

    Signature Algorithm: sha256WithRSAEncryption
         86:ba:80:ba:78:98:96:b2:75:89:cc:ce:f4:26:9b:a4:33:3e:
         c3:8b:bb:28:57:94:22:c7:6a:c8:13:39:96:18:49:e7:7f:a5:
         d7:9b:32:c8:20:a5:83:01:16:0f:71:c7:0c:18:e6:30:55:c1:
         55:a6:57:c2:b5:46:36:94:c8:76:33:c5:a4:15:9a:d6:58:00:
         b5:c0:90:32:ea:3d:1e:00:d5:4f:9d:f3:3c:b0:6a:89:51:ae:
         33:ad:13:cd:b6:13:1f:ff:c3:35:72:4e:c2:15:13:0d:3b:4e:
         fb:a4:c4:a5:0a:77:34:ff:e3:fc:86:e8:d5:c4:fd:f0:73:a1:
         fe:f0:a0:d4:18:79:fb:4e:a9:8f:bb:eb:b4:c7:d2:1b:ac:24:
         b7:b2:9f:f1:e9:f7:2e:65:04:46:6f:fe:63:77:20:89:68:a2:
         1c:85:be:dd:d7:17:30:ad:52:16:b3:8c:02:cd:5c:63:18:94:
         8e:b2:4b:07:97:90:73:b4:4b:4a:f0:07:6b:a2:b7:ee:28:6c:
         75:91:bd:ab:3e:5c:ca:c9:a1:a6:49:26:16:28:ef:50:db:c2:
         f8:7b:ca:4c:a1:e9:74:25:c8:0e:cd:63:2d:1a:d6:a2:a5:65:
         82:33:91:46:dc:81:f4:6f:77:88:f6:98:84:47:44:58:d5:f4:
         b7:33:38:9e:9e:f5:eb:f4:36:fc:6f:4d:9a:1f:da:cd:75:01:
         81:40:83:26:71:0f:29:f4:84:29:5f:79:13:01:9b:7a:9b:ae:
         42:de:d5:fd:e3:82:ba:76:d3:a8:9d:7e:7a:c8:c9:85:6e:ba:
         75:dc:1a:6c:a9:ef:1f:f5:d6:6c:38:f2:d9:2c:50:9a:a7:a4:
         a2:7f:f1:94:01:c6:cb:97:51:e3:81:8a:8e:d6:20:e0:5c:8e:
         c0:2f:39:7d:09:e8:20:60:d4:fa:a5:9a:67:d6:d4:3b:17:b6:
         1f:cc:74:32:cb:7d:7a:96:08:69:17:36:28:ac:18:fd:44:b3:
         bb:9d:6c:48:99:5e:24:2a:c3:be:03:77:e7:7e:fd:6d:51:bd:
         f3:3f:a1:14:9b:a3:69:f4:e5:20:92:a5:04:04:60:67:dc:d3:
         f7:4c:6e:e2:91:b2:00:86:77:e7:8d:31:c7:b6:97:e5:2e:a2:
         4e:99:a5:99:9f:eb:97:a7:5f:f7:97:65:bc:1a:c2:c6:cb:7b:
         7e:2e:0d:04:6a:6c:01:f1:8b:1c:a8:ae:1b:28:c1:d4:f2:b1:
         3a:ce:4a:14:18:d0:36:a9:96:ad:d0:53:0b:f4:ad:28:5c:2c:
         9a:8c:7d:8c:3d:e9:06:20:b0:dc:9f:66:d8:23:8e:41:13:51:
         c2:6e:d3:1e:4f:91:56:9f
-----BEGIN CERTIFICATE-----
MIIFSjCCAzKgAwIBAgIEEjRWejANBgkqhkiG9w0BAQsFADAnMSUwIwYDVQQDDBxT
UksxX3NoYTI1Nl80MDk2XzY1NTM3X3YzX2NhMB4XDTIyMDkyMDEzMTUyOFoXDTQy
MDkxNTEzMTUyOFowKjEoMCYGA1UEAwwfSU1HMV8xX3NoYTI1Nl80MDk2XzY1NTM3
X3YzX3VzcjCCAiIwDQYJKoZIhvcNAQEBBQADggIPADCCAgoCggIBALzhc8YosNlF
aDJOuVvGocGmfDJamsU2zS9LJSYe2LwVOSnl9AZANXMl/zwpxaE6nNMwEAraWOAt
759z3MKtlijJPeqn3T+rysPnNPlnEbvFbrkiBhg3CDHsrs4RC+r2V3RkYHYPjSUb
IZWCk6qVQ6o1WhfY/nszNuixhlnEdF/EGjUixF4bFuw3cBiUu90QH2Fq68XvQlzd
K7YLhQhG/AYgL0tMLv7NZZkMT5FiJ0D4zlZtj9dy3Yi2MBpq0MQbKPY6IqVlok8A
DMhVQLszhJlC6FVY2N3fdYpbHy2gWU++ZuyRCUrTXIujporNmZXMby6dFNxmm/5+
EjEGKHPSip6HUjAsE2rcs7Dhgkxd29DTbVD1YIqNgmkJxtQ4zkK/X/Az9QebbKHh
qxkgJgJz/3SDrNfFIYk/OtnbnsWVItaKo6Alz1nXGs0vx26JcfqPhqm4UQr21K0w
tXlCKEb2eLJpr7GSfM5JJ2Gi1WN9G4jCNDEmgVuygpQjIVT4g5FmkBfZu8d8CSWV
PNqqbRxIdKMjjelGL6x1ojk2bcRVlpJgEDKCZQBYmvq8TkA4PLaneEUR9jCSzImt
E6P9k7TVaFwbvAQXnHwkG0eOe9/7DA7MDlSUXcO2io0DEzHKX/YJv3tiap6u+dv8
lF9ckNRQhboXc0lVgdY26j+SxG8wvk57AgMBAAGjezB5MAkGA1UdEwQCMAAwLAYJ
YIZIAYb4QgENBB8WHU9wZW5TU0wgR2VuZXJhdGVkIENlcnRpZmljYXRlMB0GA1Ud
DgQWBBQGh0XWLl1YY8XwslWoL9Hg7ESj2TAfBgNVHSMEGDAWgBQWPMo3CHi/RRAT
DmT1O/+o+jzeHDANBgkqhkiG9w0BAQsFAAOCAgEAhrqAuniYlrJ1iczO9CabpDM+
w4u7KFeUIsdqyBM5lhhJ53+l15syyCClgwEWD3HHDBjmMFXBVaZXwrVGNpTIdjPF
pBWa1lgAtcCQMuo9HgDVT53zPLBqiVGuM60TzbYTH//DNXJOwhUTDTtO+6TEpQp3
NP/j/Ibo1cT98HOh/vCg1Bh5+06pj7vrtMfSG6wkt7Kf8en3LmUERm/+Y3cgiWii
HIW+3dcXMK1SFrOMAs1cYxiUjrJLB5eQc7RLSvAHa6K37ihsdZG9qz5cysmhpkkm
FijvUNvC+HvKTKHpdCXIDs1jLRrWoqVlgjORRtyB9G93iPaYhEdEWNX0tzM4np71
6/Q2/G9Nmh/azXUBgUCDJnEPKfSEKV95EwGbepuuQt7V/eOCunbTqJ1+esjJhW66
ddwabKnvH/XWbDjy2SxQmqekon/xlAHGy5dR44GKjtYg4FyOwC85fQnoIGDU+qWa
Z9bUOxe2H8x0Mst9epYIaRc2KKwY/USzu51sSJleJCrDvgN35379bVG98z+hFJuj
afTlIJKlBARgZ9zT90xu4pGyAIZ3540xx7aX5S6iTpmlmZ/rl6df95dlvBrCxst7
fi4NBGpsAfGLHKiuGyjB1PKxOs5KFBjQNqmWrdBTC/StKFwsmox9jD3pBiCw3J9m
2COOQRNRwm7THk+RVp8=
-----END CERTIFICATE-----
