Certificate:
    Data:
        Version: 3 (0x2)
        Serial Number: 305419905 (0x12345681)
        Signature Algorithm: sha256WithRSAEncryption
        Issuer: CN=CA1_sha256_4096_65537_v3_ca
        Validity
            Not Before: Sep 20 13:15:31 2022 GMT
            Not After : Sep 15 13:15:31 2042 GMT
        Subject: CN=SRK4_sha256_4096_65537_v3_ca
        Subject Public Key Info:
            Public Key Algorithm: rsaEncryption
                RSA Public-Key: (4096 bit)
                Modulus:
                    00:b7:f9:9f:1e:2f:97:d8:3f:8d:41:8a:9f:ba:91:
                    ea:24:76:62:11:d7:b5:f8:79:7f:39:b6:09:72:9d:
                    b5:48:0a:62:d6:6f:5d:ac:ea:a9:fa:a0:5f:45:2d:
                    87:04:a0:cf:77:77:53:bf:ec:1a:ca:e9:8c:78:fa:
                    bf:2c:e6:60:26:a0:12:a2:c3:22:2f:1d:d2:57:31:
                    eb:dd:7c:75:b7:ed:61:ea:85:8a:36:58:c8:be:44:
                    6a:c2:3f:ca:6e:f6:13:37:01:a4:6e:49:9e:0c:ff:
                    8f:72:b5:08:6b:91:8d:94:af:82:12:3a:40:50:fa:
                    be:58:01:3b:2c:1c:4c:fe:0a:b3:8c:32:8e:6b:ce:
                    c0:08:4b:d4:65:99:69:94:26:d2:31:c4:6a:1a:7b:
                    ef:97:b1:29:d3:7e:79:07:ba:df:94:10:fa:2b:a3:
                    51:8e:4b:cf:e2:1d:ce:8c:55:b9:b4:ab:a3:2f:12:
                    26:bd:d8:a5:22:21:4d:68:e7:26:00:9d:d1:e9:dd:
                    5a:47:e3:77:5e:54:d6:31:70:bf:3b:27:e0:e9:bb:
                    ab:b9:71:97:b3:27:f3:2a:3b:17:99:ce:06:bb:ad:
                    a9:31:a8:57:f6:48:cb:ca:c7:41:38:f1:37:50:40:
                    dc:f9:f9:6a:89:e4:da:b9:a6:0d:78:f5:f3:dd:32:
                    bf:fa:d6:4c:17:0f:44:6a:cb:93:4e:ad:30:c4:41:
                    e3:31:92:f1:14:af:21:da:a3:2f:16:30:b5:4d:96:
                    8f:76:a7:c8:52:08:71:4d:19:fa:31:66:a2:f6:8d:
                    4b:e8:22:b6:48:5e:4b:bc:3d:08:eb:d4:4d:d6:cc:
                    70:39:95:5d:4a:f7:0f:2a:6d:6f:54:6b:e1:25:63:
                    4f:dc:05:56:44:ca:46:7a:d7:ad:df:af:84:7b:9b:
                    e5:b2:dd:e9:1c:84:ce:4d:69:43:2a:8e:20:cb:a0:
                    f3:68:c0:52:16:01:d8:46:b8:e1:bf:a7:36:ee:c6:
                    5e:76:85:a2:74:53:62:e1:21:d5:58:ae:c5:aa:bd:
                    a2:5b:49:6d:7e:b1:5e:80:04:75:7e:76:6e:84:12:
                    c5:3d:b0:f5:c5:6e:79:13:65:e7:ae:f2:a9:73:58:
                    a0:ab:5d:b5:04:bb:19:49:2c:e0:b8:33:7c:76:2c:
                    ae:10:d8:47:c4:44:99:02:bc:37:14:a4:88:8b:67:
                    84:2d:68:56:73:40:c3:6a:76:95:25:06:e7:22:a9:
                    1a:26:9a:c4:32:58:6c:4a:6c:23:bf:9f:af:27:f3:
                    6a:4d:15:4c:85:81:ad:e7:d3:76:1c:2f:9d:5d:38:
                    7d:6e:c6:db:ef:8e:12:e0:56:ab:2e:50:c7:84:f3:
                    5a:9e:2f
                Exponent: 65537 (0x10001)
        X509v3 extensions:
            X509v3 Subject Key Identifier: 
                60:72:52:76:C0:6B:04:B9:96:1C:81:05:EB:E6:40:59:D2:BD:92:49
            X509v3 Authority Key Identifier: 
                keyid:A7:18:6C:65:C9:0E:27:C7:24:66:00:07:50:32:AE:F6:AA:78:9B:ED
                DirName:/CN=CA1_sha256_4096_65537_v3_ca
                serial:24:09:92:5B:DF:92:4D:82:82:E1:96:BD:80:D6:07:DB:CA:9C:58:64

            X509v3 Basic Constraints: critical
                CA:TRUE
            X509v3 Key Usage: 
                Certificate Sign
    Signature Algorithm: sha256WithRSAEncryption
         06:8f:fd:72:63:43:06:22:bb:63:96:1a:ee:30:0e:05:27:3d:
         77:84:90:c6:e5:de:eb:ab:d7:3b:45:89:3e:9a:7e:96:c6:0e:
         1d:56:6b:59:f2:99:83:44:83:5b:13:9f:5d:23:8d:ad:ff:59:
         64:8d:64:a1:c6:78:b0:59:d6:01:73:ff:99:24:b1:e4:e6:74:
         0b:5b:9b:c9:2c:ea:34:17:e8:cb:ae:7a:b1:05:83:83:b4:d5:
         03:fc:e2:9c:d2:1c:8f:c9:e5:8e:c5:d2:a9:8c:e3:7d:d6:83:
         3d:de:89:96:47:2d:ee:a3:4c:26:84:99:62:02:88:95:ae:05:
         7b:4f:27:7a:1a:a2:45:d6:55:5e:22:6c:02:d9:c3:01:e9:92:
         34:ba:ed:83:f8:2f:fd:aa:50:c2:e7:4b:c6:e2:a7:af:9f:4f:
         15:b1:30:2e:57:b2:61:6f:c1:bd:37:79:55:0d:9e:09:cb:2d:
         34:1b:21:c4:fc:86:c7:f3:ca:4f:ae:ce:dc:48:96:d8:47:29:
         a1:3a:d9:47:7f:84:70:88:6c:9b:a0:99:c4:e6:73:f4:16:47:
         3a:ba:f9:dc:28:99:e6:3c:5f:17:38:9a:13:34:9e:e6:2b:21:
         49:ac:12:78:a9:1c:a0:12:c0:5c:93:3e:c0:e1:83:74:ba:20:
         7e:bb:a4:90:55:71:3d:5a:b6:18:e9:11:88:b5:b5:02:d0:28:
         71:ab:20:d5:16:d5:3e:54:63:0c:d5:bd:8c:b6:17:23:55:be:
         ee:64:1a:52:74:29:3f:8c:58:bd:cd:a3:ac:97:f8:30:bd:7d:
         da:f4:cb:27:00:31:7b:ca:eb:64:7d:1d:d1:14:37:1a:a4:d6:
         64:8d:66:1b:3d:db:8a:f3:56:33:e0:53:74:5c:58:4c:19:e6:
         fc:eb:6b:e4:7d:af:66:ef:d8:5f:ce:6b:0d:aa:df:d2:f1:22:
         a9:38:0a:b8:e9:ca:69:70:28:08:a7:02:14:73:af:4a:e5:90:
         06:94:8a:e9:3e:61:f9:67:f1:9b:b7:c9:b3:93:4c:d5:76:4f:
         c3:e4:36:d6:64:61:3d:f7:a7:0f:4d:b0:79:77:bd:34:82:c1:
         fe:04:51:aa:ad:aa:27:50:30:b3:13:40:28:18:a1:7b:93:f9:
         40:91:f8:5f:68:10:bf:55:10:25:90:5b:9c:57:bd:bd:b0:d7:
         a8:54:dc:44:04:ee:cb:eb:d2:11:20:a1:a4:47:b7:e3:2c:e1:
         a3:de:c1:5e:68:b6:20:1a:c9:08:84:55:e2:fa:27:48:cb:71:
         49:83:bf:b2:a6:ec:6a:51:36:6e:d5:c1:6f:8b:b1:f9:d6:6e:
         f4:e4:5a:e8:40:ec:b2:47
-----BEGIN CERTIFICATE-----
MIIFbzCCA1egAwIBAgIEEjRWgTANBgkqhkiG9w0BAQsFADAmMSQwIgYDVQQDFBtD
QTFfc2hhMjU2XzQwOTZfNjU1MzdfdjNfY2EwHhcNMjIwOTIwMTMxNTMxWhcNNDIw
OTE1MTMxNTMxWjAnMSUwIwYDVQQDDBxTUks0X3NoYTI1Nl80MDk2XzY1NTM3X3Yz
X2NhMIICIjANBgkqhkiG9w0BAQEFAAOCAg8AMIICCgKCAgEAt/mfHi+X2D+NQYqf
upHqJHZiEde1+Hl/ObYJcp21SApi1m9drOqp+qBfRS2HBKDPd3dTv+wayumMePq/
LOZgJqASosMiLx3SVzHr3Xx1t+1h6oWKNljIvkRqwj/KbvYTNwGkbkmeDP+PcrUI
a5GNlK+CEjpAUPq+WAE7LBxM/gqzjDKOa87ACEvUZZlplCbSMcRqGnvvl7Ep0355
B7rflBD6K6NRjkvP4h3OjFW5tKujLxImvdilIiFNaOcmAJ3R6d1aR+N3XlTWMXC/
Oyfg6buruXGXsyfzKjsXmc4Gu62pMahX9kjLysdBOPE3UEDc+flqieTauaYNePXz
3TK/+tZMFw9EasuTTq0wxEHjMZLxFK8h2qMvFjC1TZaPdqfIUghxTRn6MWai9o1L
6CK2SF5LvD0I69RN1sxwOZVdSvcPKm1vVGvhJWNP3AVWRMpGetet36+Ee5vlst3p
HITOTWlDKo4gy6DzaMBSFgHYRrjhv6c27sZedoWidFNi4SHVWK7Fqr2iW0ltfrFe
gAR1fnZuhBLFPbD1xW55E2XnrvKpc1igq121BLsZSSzguDN8diyuENhHxESZArw3
FKSIi2eELWhWc0DDanaVJQbnIqkaJprEMlhsSmwjv5+vJ/NqTRVMhYGt59N2HC+d
XTh9bsbb744S4FarLlDHhPNani8CAwEAAaOBozCBoDAdBgNVHQ4EFgQUYHJSdsBr
BLmWHIEF6+ZAWdK9kkkwYQYDVR0jBFowWIAUpxhsZckOJ8ckZgAHUDKu9qp4m+2h
KqQoMCYxJDAiBgNVBAMUG0NBMV9zaGEyNTZfNDA5Nl82NTUzN192M19jYYIUJAmS
W9+STYKC4Za9gNYH28qcWGQwDwYDVR0TAQH/BAUwAwEB/zALBgNVHQ8EBAMCAgQw
DQYJKoZIhvcNAQELBQADggIBAAaP/XJjQwYiu2OWGu4wDgUnPXeEkMbl3uur1ztF
iT6afpbGDh1Wa1nymYNEg1sTn10jja3/WWSNZKHGeLBZ1gFz/5kkseTmdAtbm8ks
6jQX6MuuerEFg4O01QP84pzSHI/J5Y7F0qmM433Wgz3eiZZHLe6jTCaEmWICiJWu
BXtPJ3oaokXWVV4ibALZwwHpkjS67YP4L/2qUMLnS8bip6+fTxWxMC5XsmFvwb03
eVUNngnLLTQbIcT8hsfzyk+uztxIlthHKaE62Ud/hHCIbJugmcTmc/QWRzq6+dwo
meY8Xxc4mhM0nuYrIUmsEnipHKASwFyTPsDhg3S6IH67pJBVcT1athjpEYi1tQLQ
KHGrINUW1T5UYwzVvYy2FyNVvu5kGlJ0KT+MWL3No6yX+DC9fdr0yycAMXvK62R9
HdEUNxqk1mSNZhs924rzVjPgU3RcWEwZ5vzra+R9r2bv2F/Oaw2q39LxIqk4Crjp
ymlwKAinAhRzr0rlkAaUiuk+Yfln8Zu3ybOTTNV2T8PkNtZkYT33pw9NsHl3vTSC
wf4EUaqtqidQMLMTQCgYoXuT+UCR+F9oEL9VECWQW5xXvb2w16hU3EQE7svr0hEg
oaRHt+Ms4aPewV5otiAayQiEVeL6J0jLcUmDv7Km7GpRNm7VwW+LsfnWbvTkWuhA
7LJH
-----END CERTIFICATE-----
