Certificate:
    Data:
        Version: 3 (0x2)
        Serial Number: 305419902 (0x1234567e)
        Signature Algorithm: sha256WithRSAEncryption
        Issuer: CN=CA1_sha256_4096_65537_v3_ca
        Validity
            Not Before: Sep 20 13:15:30 2022 GMT
            Not After : Sep 15 13:15:30 2042 GMT
        Subject: CN=SRK3_sha256_4096_65537_v3_ca
        Subject Public Key Info:
            Public Key Algorithm: rsaEncryption
                RSA Public-Key: (4096 bit)
                Modulus:
                    00:b4:c1:a5:cf:66:95:14:13:e4:27:dd:19:5d:ac:
                    bf:50:f4:a7:a3:1a:53:2a:0a:f4:a5:e1:03:ab:cc:
                    1d:b5:05:a0:b9:3a:4d:76:82:1c:6e:59:ae:02:17:
                    ab:5e:06:32:1d:6b:36:e5:f6:62:f6:52:3c:77:98:
                    d2:c1:25:d9:c8:c0:ae:e6:d9:98:d1:69:67:1f:eb:
                    ff:22:cd:8c:12:c3:b1:1a:44:60:59:4f:39:70:87:
                    d5:04:9f:f3:85:8c:e7:46:f4:a1:63:0f:2d:25:05:
                    4c:ae:35:33:d0:44:a8:85:c5:dc:f0:ee:6a:92:2e:
                    7d:2e:b7:9e:e3:81:ad:6d:aa:62:28:79:70:2c:c2:
                    de:31:94:c7:c5:9b:aa:8a:e9:a6:40:9f:57:f7:3f:
                    da:3e:8f:f9:1a:8e:18:d8:5a:8d:74:96:20:49:b1:
                    15:c5:6a:8e:6d:1f:a2:20:88:57:ab:44:62:ac:56:
                    b0:6f:43:5e:e5:65:68:b3:42:71:1a:82:7e:cf:3b:
                    a9:ee:7e:c5:9b:b9:8b:07:74:bd:02:3f:5c:81:cb:
                    ba:a1:4c:33:ac:a9:9a:06:65:17:22:d0:3c:6d:2e:
                    d3:57:c7:3f:80:b5:e7:5f:98:47:ed:02:bf:d0:d5:
                    09:53:42:67:fd:95:7b:7b:25:be:c6:b1:72:73:95:
                    50:ca:9f:f8:3a:74:42:d6:e3:e1:79:5b:e8:86:da:
                    bb:e1:a4:48:22:ec:a5:73:6e:0e:3c:02:e8:12:d9:
                    86:2e:74:cb:34:85:94:16:f0:32:85:a6:23:0d:63:
                    b7:96:06:17:94:d3:85:0c:80:89:f3:a5:fb:10:b6:
                    b3:b5:d8:5b:72:6a:1e:1d:3e:ec:33:e2:c0:dc:90:
                    fd:29:d8:11:d2:89:d0:0e:ab:26:af:e4:73:cb:8e:
                    3d:aa:10:4b:f2:91:4a:5d:b4:50:d2:f8:a4:43:b3:
                    ba:ec:4a:4e:b2:6c:8e:e7:a3:5b:8b:42:2d:e3:fd:
                    f3:d5:cb:ee:00:f0:df:0a:29:47:b9:c4:04:aa:fd:
                    b5:fc:44:b1:84:dc:b1:b6:54:2a:b5:0d:81:09:3b:
                    3b:96:f9:78:d8:13:10:2a:f8:5e:63:40:95:dc:40:
                    ce:b8:27:91:4c:63:b4:6d:b4:62:e2:e7:6d:10:1a:
                    db:db:3a:f2:08:a0:61:bd:06:1f:14:26:59:22:6a:
                    51:76:e7:8c:e7:65:35:2d:25:9a:1e:c9:3d:6b:1e:
                    dc:71:3b:59:c8:41:79:73:3c:7a:1b:5b:6c:8b:03:
                    8c:cf:23:8f:1f:d1:70:ab:c7:f0:fd:80:11:b0:dc:
                    0f:56:15:f2:6d:3c:ae:f2:9f:b3:ec:73:03:81:41:
                    dc:87:7b
                Exponent: 65537 (0x10001)
        X509v3 extensions:
            X509v3 Subject Key Identifier: 
                63:7F:BB:8E:C7:1D:83:8B:EA:19:A2:AE:21:53:FD:A0:00:E0:DF:F1
            X509v3 Authority Key Identifier: 
                keyid:A7:18:6C:65:C9:0E:27:C7:24:66:00:07:50:32:AE:F6:AA:78:9B:ED
                DirName:/CN=CA1_sha256_4096_65537_v3_ca
                serial:24:09:92:5B:DF:92:4D:82:82:E1:96:BD:80:D6:07:DB:CA:9C:58:64

            X509v3 Basic Constraints: critical
                CA:TRUE
            X509v3 Key Usage: 
                Certificate Sign
    Signature Algorithm: sha256WithRSAEncryption
         e7:cb:0d:90:24:cb:bf:96:90:d6:b9:1d:b3:0c:e1:97:03:02:
         0c:db:c2:9d:62:23:bb:c4:f1:d7:08:41:63:ff:1d:d3:24:a4:
         9e:35:0f:39:b4:57:a5:8f:5f:e4:0b:8f:70:ea:c1:aa:cf:38:
         c5:87:06:92:bc:e7:03:5a:ac:dc:0b:57:c1:c5:7c:48:9d:ba:
         07:9b:91:b8:ef:ac:dd:98:3f:4c:8d:37:ae:6c:8f:08:28:2e:
         8d:9e:05:32:a6:a0:49:94:54:70:0e:e0:1b:7d:3f:3c:d1:a3:
         f7:2a:de:7f:28:40:02:8f:d1:fc:f5:9b:7c:c6:a7:06:22:93:
         fd:71:1b:90:60:eb:66:6a:45:a8:e5:ad:e6:03:dd:04:08:02:
         33:88:d3:6f:df:04:9d:25:ba:b3:a9:c0:ec:f7:09:68:2c:1b:
         d2:99:d6:86:e7:c9:60:d0:56:d0:f7:74:cb:62:45:3a:e8:32:
         0b:54:54:a1:df:44:e7:cf:b0:b9:71:cb:7f:a1:90:9c:c9:94:
         b5:6e:dc:24:2e:db:c7:ad:4f:90:73:1c:e9:96:42:d8:0c:1e:
         12:63:87:16:1c:b4:5c:78:b8:a5:5f:2d:37:fe:6f:1a:de:89:
         31:aa:1a:e5:7a:b3:47:ad:26:de:4d:fd:f5:f8:65:11:8c:57:
         32:6b:a7:60:ad:43:92:06:7a:79:55:dc:b1:27:bb:97:8d:0c:
         c8:3d:e9:9d:21:c6:71:b4:15:80:7c:46:86:68:21:9c:4b:45:
         cb:39:d7:94:af:6b:d7:9c:a0:e1:4b:6f:30:74:74:f2:6f:78:
         a6:70:47:3f:ad:00:e9:7c:6f:27:95:5e:f1:3d:eb:2a:89:1e:
         be:3c:ea:e5:c4:03:9d:2d:bb:53:d9:de:bb:23:57:38:be:c2:
         f1:21:9d:e2:95:cb:a1:88:37:74:f9:14:33:90:64:3f:f4:6a:
         20:b0:25:15:d0:2e:a2:c0:fd:fa:0b:79:78:c9:a4:49:28:98:
         74:81:5c:e3:48:d0:56:84:e3:33:b2:b8:20:5d:c7:a3:bb:cc:
         a3:cc:43:14:03:71:46:3a:cb:62:0b:2f:e8:4b:8e:d8:cb:47:
         b6:8f:08:d1:7b:08:f0:79:e2:82:ce:1b:0c:58:9a:14:e8:08:
         e9:9e:6b:6e:2c:a3:44:d3:d8:b5:da:e5:d7:65:a9:db:99:22:
         26:45:0d:cd:3b:c9:76:75:2b:de:63:5b:09:e3:8b:cb:49:db:
         11:a9:29:54:2d:1c:b6:a0:e1:7b:bb:8b:1d:bf:c7:96:d3:61:
         34:a1:21:20:10:58:0a:c1:9c:65:4d:63:de:d5:43:f3:32:da:
         62:a8:39:28:0c:fe:b4:52
-----BEGIN CERTIFICATE-----
MIIFbzCCA1egAwIBAgIEEjRWfjANBgkqhkiG9w0BAQsFADAmMSQwIgYDVQQDFBtD
QTFfc2hhMjU2XzQwOTZfNjU1MzdfdjNfY2EwHhcNMjIwOTIwMTMxNTMwWhcNNDIw
OTE1MTMxNTMwWjAnMSUwIwYDVQQDDBxTUkszX3NoYTI1Nl80MDk2XzY1NTM3X3Yz
X2NhMIICIjANBgkqhkiG9w0BAQEFAAOCAg8AMIICCgKCAgEAtMGlz2aVFBPkJ90Z
Xay/UPSnoxpTKgr0peEDq8wdtQWguTpNdoIcblmuAherXgYyHWs25fZi9lI8d5jS
wSXZyMCu5tmY0WlnH+v/Is2MEsOxGkRgWU85cIfVBJ/zhYznRvShYw8tJQVMrjUz
0ESohcXc8O5qki59Lree44GtbapiKHlwLMLeMZTHxZuqiummQJ9X9z/aPo/5Go4Y
2FqNdJYgSbEVxWqObR+iIIhXq0RirFawb0Ne5WVos0JxGoJ+zzup7n7Fm7mLB3S9
Aj9cgcu6oUwzrKmaBmUXItA8bS7TV8c/gLXnX5hH7QK/0NUJU0Jn/ZV7eyW+xrFy
c5VQyp/4OnRC1uPheVvohtq74aRIIuylc24OPALoEtmGLnTLNIWUFvAyhaYjDWO3
lgYXlNOFDICJ86X7ELaztdhbcmoeHT7sM+LA3JD9KdgR0onQDqsmr+Rzy449qhBL
8pFKXbRQ0vikQ7O67EpOsmyO56Nbi0It4/3z1cvuAPDfCilHucQEqv21/ESxhNyx
tlQqtQ2BCTs7lvl42BMQKvheY0CV3EDOuCeRTGO0bbRi4udtEBrb2zryCKBhvQYf
FCZZImpRdueM52U1LSWaHsk9ax7ccTtZyEF5czx6G1tsiwOMzyOPH9Fwq8fw/YAR
sNwPVhXybTyu8p+z7HMDgUHch3sCAwEAAaOBozCBoDAdBgNVHQ4EFgQUY3+7jscd
g4vqGaKuIVP9oADg3/EwYQYDVR0jBFowWIAUpxhsZckOJ8ckZgAHUDKu9qp4m+2h
KqQoMCYxJDAiBgNVBAMUG0NBMV9zaGEyNTZfNDA5Nl82NTUzN192M19jYYIUJAmS
W9+STYKC4Za9gNYH28qcWGQwDwYDVR0TAQH/BAUwAwEB/zALBgNVHQ8EBAMCAgQw
DQYJKoZIhvcNAQELBQADggIBAOfLDZAky7+WkNa5HbMM4ZcDAgzbwp1iI7vE8dcI
QWP/HdMkpJ41Dzm0V6WPX+QLj3DqwarPOMWHBpK85wNarNwLV8HFfEidugebkbjv
rN2YP0yNN65sjwgoLo2eBTKmoEmUVHAO4Bt9PzzRo/cq3n8oQAKP0fz1m3zGpwYi
k/1xG5Bg62ZqRajlreYD3QQIAjOI02/fBJ0lurOpwOz3CWgsG9KZ1obnyWDQVtD3
dMtiRTroMgtUVKHfROfPsLlxy3+hkJzJlLVu3CQu28etT5BzHOmWQtgMHhJjhxYc
tFx4uKVfLTf+bxreiTGqGuV6s0etJt5N/fX4ZRGMVzJrp2CtQ5IGenlV3LEnu5eN
DMg96Z0hxnG0FYB8RoZoIZxLRcs515Sva9ecoOFLbzB0dPJveKZwRz+tAOl8byeV
XvE96yqJHr486uXEA50tu1PZ3rsjVzi+wvEhneKVy6GIN3T5FDOQZD/0aiCwJRXQ
LqLA/foLeXjJpEkomHSBXONI0FaE4zOyuCBdx6O7zKPMQxQDcUY6y2ILL+hLjtjL
R7aPCNF7CPB54oLOGwxYmhToCOmea24so0TT2LXa5ddlqduZIiZFDc07yXZ1K95j
Wwnji8tJ2xGpKVQtHLag4Xu7ix2/x5bTYTShISAQWArBnGVNY97VQ/My2mKoOSgM
/rRS
-----END CERTIFICATE-----
