Certificate:
    Data:
        Version: 3 (0x2)
        Serial Number: 305419904 (0x12345680)
        Signature Algorithm: sha256WithRSAEncryption
        Issuer: CN=SRK3_sha256_4096_65537_v3_ca
        Validity
            Not Before: Sep 20 13:15:31 2022 GMT
            Not After : Sep 15 13:15:31 2042 GMT
        Subject: CN=IMG3_1_sha256_4096_65537_v3_usr
        Subject Public Key Info:
            Public Key Algorithm: rsaEncryption
                RSA Public-Key: (4096 bit)
                Modulus:
                    00:af:72:5c:59:bc:85:0d:5e:e1:7a:60:61:c7:fe:
                    8c:c8:d6:df:eb:b4:5f:b3:bd:c3:ad:ad:eb:af:0c:
                    ee:d9:ed:17:9a:96:82:a2:1e:e3:4c:85:f0:32:c6:
                    06:b1:d6:ee:3b:28:10:d0:ba:d5:80:c0:87:fe:43:
                    6a:d6:b2:80:aa:47:40:1e:33:74:3f:cf:01:74:04:
                    ae:14:d2:5b:f6:63:9c:53:f6:72:f4:ba:ab:65:e9:
                    a8:5e:18:f7:17:f1:6c:f5:60:ab:10:cb:2f:0a:5f:
                    50:49:4f:6c:6f:c8:9f:28:73:d0:f0:63:6b:ba:c6:
                    dc:ff:d7:27:a1:c0:31:72:17:fa:3f:ea:e7:5c:b7:
                    36:1d:67:42:18:a4:13:d3:90:24:bd:0b:58:35:31:
                    fa:2f:24:fe:db:a1:c8:89:6b:2a:1d:7a:1b:f3:88:
                    48:90:b4:68:c4:48:85:55:5d:0b:cc:b9:0f:85:9f:
                    fb:4a:b7:3c:e5:ac:d2:65:23:17:e1:7b:05:b1:db:
                    11:a2:89:1b:b4:64:13:39:f0:20:88:09:30:48:f2:
                    11:ca:da:e0:fe:38:6d:cc:fc:28:ae:52:bc:52:0a:
                    5b:87:3e:de:f0:e4:73:4e:65:04:ce:38:47:62:b9:
                    58:44:c5:52:c4:81:a9:41:46:cf:a9:03:dd:0f:be:
                    ac:db:92:85:10:a6:59:7a:b5:c4:81:61:80:a1:28:
                    80:f8:36:a4:1a:16:9c:8a:6d:33:38:30:94:d4:db:
                    98:89:bc:6b:c3:c6:b0:b0:40:8c:cd:af:27:4f:4c:
                    ca:01:85:bd:b1:d2:6e:bf:18:12:2c:21:4c:96:02:
                    00:91:72:66:d3:72:b1:2b:98:82:9f:8c:ca:91:79:
                    81:5d:c0:b0:cc:36:d6:47:ba:1c:8d:d5:08:55:55:
                    4f:4f:0a:a5:16:ef:16:f2:1c:df:9f:14:64:31:d4:
                    12:fd:a3:62:ff:a6:2e:2e:8a:98:f8:cd:5a:d9:d5:
                    db:7c:70:06:31:5f:86:8b:69:4d:37:1e:a1:69:c6:
                    dc:95:24:da:c7:7a:25:81:c5:34:82:af:bc:a5:f7:
                    8a:bb:83:a1:da:dc:ef:21:bb:a4:19:e6:4f:35:02:
                    95:f1:f2:dc:79:a4:a5:75:7b:1e:7f:75:f1:90:cb:
                    8b:73:1d:65:8e:ad:a4:cb:8e:fb:de:50:88:a6:12:
                    f6:8c:84:64:9d:8e:06:a5:a7:66:a1:f6:5d:16:ef:
                    c7:a8:bd:06:85:ed:90:ab:98:b7:76:52:28:47:dc:
                    fe:2b:87:42:45:a6:9a:d8:52:fd:e3:a5:d2:c1:15:
                    4a:ca:84:12:28:44:35:3f:71:de:ea:49:e5:3d:88:
                    25:50:ff
                Exponent: 65537 (0x10001)
        X509v3 extensions:
            X509v3 Basic Constraints: 
                CA:FALSE
            Netscape Comment: 
                OpenSSL Generated Certificate
            X509v3 Subject Key Identifier: 
                B2:73:34:62:3B:E1:6E:09:C6:0E:D3:C1:5F:3E:4B:B6:CB:7F:AF:F3
            X509v3 Authority Key Identifier: 
                keyid:63:7F:BB:8E:C7:1D:83:8B:EA:19:A2:AE:21:53:FD:A0:00:E0:DF:F1

    Signature Algorithm: sha256WithRSAEncryption
         54:3e:87:10:99:bf:e5:af:ff:a6:a3:ce:70:54:e2:58:bb:f1:
         5d:01:bb:12:95:83:c6:67:c7:cf:83:43:77:2f:b7:de:a7:3a:
         40:23:a9:b9:db:45:ce:de:56:ce:79:58:b2:95:d6:f2:a6:a9:
         0e:9b:e1:8c:dc:0d:f0:45:55:e8:cc:27:d1:61:e0:e1:6f:34:
         dc:d4:50:f9:a7:51:04:bb:92:f6:e5:d9:13:4d:21:62:00:03:
         c9:aa:5b:28:73:49:ef:62:83:b3:a2:bc:6f:20:3e:04:7f:95:
         53:11:0b:81:3b:f6:c4:86:aa:57:7f:4a:63:ba:6d:9b:e4:9a:
         36:9e:ba:65:2e:93:3d:5f:8b:e2:04:7f:ed:5d:f6:5a:a1:c1:
         f2:15:e1:ea:e0:f1:75:fe:0b:43:52:b0:4e:40:11:00:bb:2a:
         23:a6:fd:6b:89:60:92:2b:cc:30:55:ce:61:f5:b1:b3:02:bd:
         35:28:b8:14:e2:e0:e6:88:c2:74:91:77:69:ab:c2:23:3a:1c:
         a9:94:72:60:13:3e:5e:91:ab:53:73:58:35:32:9d:a4:48:84:
         a1:fa:3a:74:1f:33:c8:5c:3f:f1:8b:a0:15:d0:49:c5:5d:a6:
         0f:c5:9c:15:1f:33:f0:f2:f6:cc:df:fa:8a:59:43:76:8a:91:
         b0:30:50:c1:ea:bf:df:eb:56:19:f4:08:5e:d2:13:41:8d:c8:
         ae:8c:31:73:42:dd:97:03:53:27:9f:3e:30:e1:7c:f5:ed:51:
         b3:e6:6d:83:73:48:46:9c:ef:75:41:a6:73:50:6e:16:1c:fc:
         99:3d:dc:77:3f:6f:31:5d:f7:c6:3a:25:35:0b:e8:52:13:c3:
         83:4d:72:bb:62:e0:e6:f1:e9:27:3e:a0:48:7c:5d:99:75:49:
         c5:b6:2b:b6:48:63:17:51:70:37:2f:74:a1:57:5d:25:fb:ad:
         c7:52:47:72:d6:8a:08:2c:d0:0a:8d:e3:b6:73:43:0a:db:2a:
         cb:25:e0:0e:9c:34:90:6e:04:b1:ad:07:d3:2f:35:b9:a4:35:
         bc:9e:90:ff:8d:c5:b6:5f:4d:1b:af:df:ba:2a:ab:dc:19:f8:
         94:42:2a:c2:ea:54:26:ca:84:de:e9:92:39:ff:05:85:78:9a:
         13:4c:2c:b9:1f:80:72:d1:e1:34:c5:c9:b1:2b:32:63:a3:61:
         b6:43:01:e5:64:5e:20:0c:63:ea:6a:b3:7e:f2:6d:57:2b:66:
         fc:84:b3:11:9c:d4:98:41:7a:ce:3c:b1:bb:31:17:13:01:8b:
         a2:d3:3f:db:a4:61:e0:86:ff:e3:16:0a:e7:4b:1c:0b:78:5c:
         5a:b5:ac:25:06:60:92:ce
-----BEGIN CERTIFICATE-----
MIIFSjCCAzKgAwIBAgIEEjRWgDANBgkqhkiG9w0BAQsFADAnMSUwIwYDVQQDDBxT
UkszX3NoYTI1Nl80MDk2XzY1NTM3X3YzX2NhMB4XDTIyMDkyMDEzMTUzMVoXDTQy
MDkxNTEzMTUzMVowKjEoMCYGA1UEAwwfSU1HM18xX3NoYTI1Nl80MDk2XzY1NTM3
X3YzX3VzcjCCAiIwDQYJKoZIhvcNAQEBBQADggIPADCCAgoCggIBAK9yXFm8hQ1e
4XpgYcf+jMjW3+u0X7O9w62t668M7tntF5qWgqIe40yF8DLGBrHW7jsoENC61YDA
h/5DataygKpHQB4zdD/PAXQErhTSW/ZjnFP2cvS6q2XpqF4Y9xfxbPVgqxDLLwpf
UElPbG/Inyhz0PBja7rG3P/XJ6HAMXIX+j/q51y3Nh1nQhikE9OQJL0LWDUx+i8k
/tuhyIlrKh16G/OISJC0aMRIhVVdC8y5D4Wf+0q3POWs0mUjF+F7BbHbEaKJG7Rk
EznwIIgJMEjyEcra4P44bcz8KK5SvFIKW4c+3vDkc05lBM44R2K5WETFUsSBqUFG
z6kD3Q++rNuShRCmWXq1xIFhgKEogPg2pBoWnIptMzgwlNTbmIm8a8PGsLBAjM2v
J09MygGFvbHSbr8YEiwhTJYCAJFyZtNysSuYgp+MypF5gV3AsMw21ke6HI3VCFVV
T08KpRbvFvIc358UZDHUEv2jYv+mLi6KmPjNWtnV23xwBjFfhotpTTceoWnG3JUk
2sd6JYHFNIKvvKX3iruDodrc7yG7pBnmTzUClfHy3HmkpXV7Hn918ZDLi3MdZY6t
pMuO+95QiKYS9oyEZJ2OBqWnZqH2XRbvx6i9BoXtkKuYt3ZSKEfc/iuHQkWmmthS
/eOl0sEVSsqEEihENT9x3upJ5T2IJVD/AgMBAAGjezB5MAkGA1UdEwQCMAAwLAYJ
YIZIAYb4QgENBB8WHU9wZW5TU0wgR2VuZXJhdGVkIENlcnRpZmljYXRlMB0GA1Ud
DgQWBBSyczRiO+FuCcYO08FfPku2y3+v8zAfBgNVHSMEGDAWgBRjf7uOxx2Di+oZ
oq4hU/2gAODf8TANBgkqhkiG9w0BAQsFAAOCAgEAVD6HEJm/5a//pqPOcFTiWLvx
XQG7EpWDxmfHz4NDdy+33qc6QCOpudtFzt5WznlYspXW8qapDpvhjNwN8EVV6Mwn
0WHg4W803NRQ+adRBLuS9uXZE00hYgADyapbKHNJ72KDs6K8byA+BH+VUxELgTv2
xIaqV39KY7ptm+SaNp66ZS6TPV+L4gR/7V32WqHB8hXh6uDxdf4LQ1KwTkARALsq
I6b9a4lgkivMMFXOYfWxswK9NSi4FOLg5ojCdJF3aavCIzocqZRyYBM+XpGrU3NY
NTKdpEiEofo6dB8zyFw/8YugFdBJxV2mD8WcFR8z8PL2zN/6illDdoqRsDBQweq/
3+tWGfQIXtITQY3Irowxc0LdlwNTJ58+MOF89e1Rs+Ztg3NIRpzvdUGmc1BuFhz8
mT3cdz9vMV33xjolNQvoUhPDg01yu2Lg5vHpJz6gSHxdmXVJxbYrtkhjF1FwNy90
oVddJfutx1JHctaKCCzQCo3jtnNDCtsqyyXgDpw0kG4Esa0H0y81uaQ1vJ6Q/43F
tl9NG6/fuiqr3Bn4lEIqwupUJsqE3umSOf8FhXiaE0wsuR+ActHhNMXJsSsyY6Nh
tkMB5WReIAxj6mqzfvJtVytm/ISzEZzUmEF6zjyxuzEXEwGLotM/26Rh4Ib/4xYK
50scC3hcWrWsJQZgks4=
-----END CERTIFICATE-----
