Certificate:
    Data:
        Version: 3 (0x2)
        Serial Number: 305419901 (0x1234567d)
        Signature Algorithm: sha256WithRSAEncryption
        Issuer: CN=SRK2_sha256_4096_65537_v3_ca
        Validity
            Not Before: Sep 20 13:15:29 2022 GMT
            Not After : Sep 15 13:15:29 2042 GMT
        Subject: CN=IMG2_1_sha256_4096_65537_v3_usr
        Subject Public Key Info:
            Public Key Algorithm: rsaEncryption
                RSA Public-Key: (4096 bit)
                Modulus:
                    00:a0:a3:3c:c0:c7:db:06:a1:e9:d7:f4:6d:fd:69:
                    f6:0b:fd:00:1e:68:0a:89:1a:cf:08:ad:e5:14:41:
                    c8:e3:f2:64:67:d1:59:62:c2:84:8a:f0:01:bd:4e:
                    d8:a7:b8:00:1e:0a:d3:5d:d2:e4:cc:51:a2:d3:0c:
                    f9:a5:a8:9c:1c:5d:7a:d0:d3:58:11:0d:95:15:6a:
                    58:5b:e9:f0:bd:73:04:4b:cf:d8:82:e0:5b:2b:e5:
                    15:fc:c7:a8:eb:d0:de:c4:8a:3a:2b:fb:95:65:41:
                    f3:54:88:f8:4a:1b:38:f3:36:a6:fe:5a:c0:9c:62:
                    66:ac:d1:51:66:99:e6:48:15:7c:cd:b1:6d:a0:0c:
                    9c:c2:a4:a8:23:de:a1:63:62:3b:fe:46:13:24:15:
                    8a:8b:d5:1f:2d:29:f9:fd:78:1e:32:17:80:7e:df:
                    73:5c:49:1e:2d:1e:10:af:37:94:fb:23:9b:88:6e:
                    bd:21:76:ca:d9:f9:e2:eb:8b:9e:5d:d8:96:97:57:
                    b4:bf:e2:56:e2:89:4d:09:4b:da:77:17:42:a9:7d:
                    6b:03:a1:7a:7a:7a:26:95:85:da:d0:1a:aa:b1:4b:
                    7b:6d:c3:e6:8e:61:d6:0f:72:89:79:c6:43:06:7d:
                    ec:2e:c7:7a:f7:43:ce:d2:a5:1c:07:ac:b9:d5:29:
                    c2:b7:63:ae:cf:d2:25:cd:17:1c:c8:73:21:2e:e4:
                    54:fc:d6:17:52:8e:75:f3:5b:47:88:ea:02:13:10:
                    e4:a1:b2:9a:81:04:35:cd:02:79:58:f4:0d:7c:fb:
                    b8:cb:dd:c7:5d:7d:b7:fb:23:08:80:a0:9a:10:54:
                    2f:d8:ad:b3:5c:66:dd:04:30:8b:f0:e3:e0:6f:58:
                    e4:94:54:5b:5d:e9:d3:ff:7d:3a:2f:4b:c6:58:35:
                    f6:e4:74:c2:82:5c:57:00:be:46:81:47:19:b5:c6:
                    97:ec:45:71:d2:fa:fa:a1:6f:34:c3:83:19:47:22:
                    0d:c5:8c:70:e0:e9:fd:c7:41:63:f4:80:0a:bc:b7:
                    29:0b:6f:63:94:26:1d:85:9e:63:3e:dd:4b:28:6b:
                    f3:85:ea:4b:1e:b7:f4:7f:84:40:f6:42:81:02:50:
                    ce:52:c7:6d:67:81:58:26:02:36:51:50:ff:8c:d1:
                    2e:61:4a:ec:df:36:50:be:8d:2e:c4:a6:68:b2:5e:
                    0a:9b:75:28:da:7b:01:cb:01:1e:17:78:e5:a8:ab:
                    c1:27:1f:9f:09:6c:d7:ab:8d:fb:59:a8:8f:3e:1b:
                    e5:03:6f:31:84:a2:7d:2b:ec:65:c6:ed:45:4e:43:
                    15:72:dd:16:6e:b5:a9:ea:88:6d:33:4f:7a:8b:0f:
                    6a:a3:c3
                Exponent: 65537 (0x10001)
        X509v3 extensions:
            X509v3 Basic Constraints: 
                CA:FALSE
            Netscape Comment: 
                OpenSSL Generated Certificate
            X509v3 Subject Key Identifier: 
                16:70:9E:4E:DD:8B:14:3C:13:23:14:5F:62:C0:BD:57:DD:8B:A2:83
            X509v3 Authority Key Identifier: 
                keyid:4D:C7:5F:65:57:A4:85:B9:66:01:FE:4C:87:1A:55:7F:46:41:AF:00

    Signature Algorithm: sha256WithRSAEncryption
         47:d7:50:b4:7f:98:12:23:5c:1a:74:38:54:f1:d1:94:fa:38:
         1c:98:14:8a:e8:d9:8d:4a:48:bb:fe:66:3c:36:71:ce:50:d5:
         12:9f:4c:29:3a:8a:20:6d:c0:99:55:e2:ea:86:3a:94:7e:39:
         d5:c8:09:ea:fd:69:5d:0b:55:28:6d:c0:d5:2a:68:53:79:a6:
         d1:7a:6d:3f:17:32:ee:f8:ba:49:75:98:95:f4:d3:bf:fc:8c:
         06:3f:c5:cb:32:84:fd:97:9f:c1:69:19:84:10:dc:92:32:a3:
         f8:0d:f1:64:7a:d5:60:a5:b1:11:a3:42:a7:4e:5f:25:a0:2f:
         ab:a6:d8:3e:20:3d:48:f4:17:3a:b1:44:2d:a9:04:f2:ff:2a:
         f0:28:77:4e:95:3a:97:09:b8:f4:fd:19:99:7b:3b:b0:af:7a:
         d7:65:e4:34:a8:c8:b4:c8:b0:d6:6c:b8:eb:29:27:d2:1d:26:
         91:65:fa:bf:24:2e:9c:82:bd:2b:60:84:95:47:2f:47:89:be:
         e6:a1:5e:b4:29:ca:7b:a1:ff:85:6b:57:78:ea:49:3a:6b:b3:
         81:85:cc:ff:0f:f7:2d:09:16:22:4a:49:3e:73:78:4e:0c:c8:
         e6:fb:8f:6b:ae:18:ef:32:7d:c8:cb:f5:4b:0e:16:9c:36:8a:
         0f:1c:a8:0e:12:a9:be:8a:87:08:1f:d6:d4:9a:7d:4b:5b:86:
         f5:59:16:60:3c:11:84:1c:07:6f:8c:ee:ef:08:7f:48:d0:b1:
         70:bd:d6:a6:8f:50:1b:b4:b9:3f:75:df:80:cf:c5:ad:b6:8b:
         0a:79:5a:b2:0d:b3:49:5a:3c:bb:37:a2:12:7f:14:22:5b:c9:
         88:81:24:82:44:df:4c:4f:2d:51:78:fe:d0:d0:fa:5b:fe:36:
         37:e3:8d:a2:b3:00:f1:95:f6:6f:01:3c:9d:e3:51:66:e7:18:
         c7:44:ac:f8:35:3b:a0:0d:fe:d0:2c:1d:68:5d:61:92:34:a4:
         10:40:ab:34:74:b1:2a:92:79:43:97:76:e0:4f:e3:e5:85:72:
         1a:62:36:c6:25:08:84:dd:a4:10:98:28:1e:9f:ae:15:5a:03:
         42:07:20:f0:e1:86:34:90:63:bd:59:5a:12:60:00:ea:bf:be:
         35:eb:86:4c:cc:6c:65:4a:5c:e6:a5:60:02:5e:60:40:c8:fd:
         88:84:53:e4:db:64:6c:0b:2a:21:18:44:a2:a7:41:33:b6:88:
         ad:92:32:b0:ce:a6:ac:bc:ae:41:0d:7c:1c:e6:cf:ab:6b:ec:
         0a:21:4e:0b:0d:c2:e1:9a:91:67:27:b3:22:a0:ea:2c:dd:41:
         29:b2:6d:d1:99:b8:5e:2f
-----BEGIN CERTIFICATE-----
MIIFSjCCAzKgAwIBAgIEEjRWfTANBgkqhkiG9w0BAQsFADAnMSUwIwYDVQQDDBxT
UksyX3NoYTI1Nl80MDk2XzY1NTM3X3YzX2NhMB4XDTIyMDkyMDEzMTUyOVoXDTQy
MDkxNTEzMTUyOVowKjEoMCYGA1UEAwwfSU1HMl8xX3NoYTI1Nl80MDk2XzY1NTM3
X3YzX3VzcjCCAiIwDQYJKoZIhvcNAQEBBQADggIPADCCAgoCggIBAKCjPMDH2wah
6df0bf1p9gv9AB5oCokazwit5RRByOPyZGfRWWLChIrwAb1O2Ke4AB4K013S5MxR
otMM+aWonBxdetDTWBENlRVqWFvp8L1zBEvP2ILgWyvlFfzHqOvQ3sSKOiv7lWVB
81SI+EobOPM2pv5awJxiZqzRUWaZ5kgVfM2xbaAMnMKkqCPeoWNiO/5GEyQViovV
Hy0p+f14HjIXgH7fc1xJHi0eEK83lPsjm4huvSF2ytn54uuLnl3YlpdXtL/iVuKJ
TQlL2ncXQql9awOhenp6JpWF2tAaqrFLe23D5o5h1g9yiXnGQwZ97C7HevdDztKl
HAesudUpwrdjrs/SJc0XHMhzIS7kVPzWF1KOdfNbR4jqAhMQ5KGymoEENc0CeVj0
DXz7uMvdx119t/sjCICgmhBUL9its1xm3QQwi/Dj4G9Y5JRUW13p0/99Oi9Lxlg1
9uR0woJcVwC+RoFHGbXGl+xFcdL6+qFvNMODGUciDcWMcODp/cdBY/SACry3KQtv
Y5QmHYWeYz7dSyhr84XqSx639H+EQPZCgQJQzlLHbWeBWCYCNlFQ/4zRLmFK7N82
UL6NLsSmaLJeCpt1KNp7AcsBHhd45airwScfnwls16uN+1mojz4b5QNvMYSifSvs
ZcbtRU5DFXLdFm61qeqIbTNPeosPaqPDAgMBAAGjezB5MAkGA1UdEwQCMAAwLAYJ
YIZIAYb4QgENBB8WHU9wZW5TU0wgR2VuZXJhdGVkIENlcnRpZmljYXRlMB0GA1Ud
DgQWBBQWcJ5O3YsUPBMjFF9iwL1X3YuigzAfBgNVHSMEGDAWgBRNx19lV6SFuWYB
/kyHGlV/RkGvADANBgkqhkiG9w0BAQsFAAOCAgEAR9dQtH+YEiNcGnQ4VPHRlPo4
HJgUiujZjUpIu/5mPDZxzlDVEp9MKTqKIG3AmVXi6oY6lH451cgJ6v1pXQtVKG3A
1SpoU3mm0XptPxcy7vi6SXWYlfTTv/yMBj/FyzKE/ZefwWkZhBDckjKj+A3xZHrV
YKWxEaNCp05fJaAvq6bYPiA9SPQXOrFELakE8v8q8Ch3TpU6lwm49P0ZmXs7sK96
12XkNKjItMiw1my46ykn0h0mkWX6vyQunIK9K2CElUcvR4m+5qFetCnKe6H/hWtX
eOpJOmuzgYXM/w/3LQkWIkpJPnN4TgzI5vuPa64Y7zJ9yMv1Sw4WnDaKDxyoDhKp
voqHCB/W1Jp9S1uG9VkWYDwRhBwHb4zu7wh/SNCxcL3Wpo9QG7S5P3XfgM/FrbaL
Cnlasg2zSVo8uzeiEn8UIlvJiIEkgkTfTE8tUXj+0ND6W/42N+ONorMA8ZX2bwE8
neNRZucYx0Ss+DU7oA3+0CwdaF1hkjSkEECrNHSxKpJ5Q5d24E/j5YVyGmI2xiUI
hN2kEJgoHp+uFVoDQgcg8OGGNJBjvVlaEmAA6r++NeuGTMxsZUpc5qVgAl5gQMj9
iIRT5NtkbAsqIRhEoqdBM7aIrZIysM6mrLyuQQ18HObPq2vsCiFOCw3C4ZqRZyez
IqDqLN1BKbJt0Zm4Xi8=
-----END CERTIFICATE-----
