Certificate:
    Data:
        Version: 3 (0x2)
        Serial Number: 305419899 (0x1234567b)
        Signature Algorithm: sha256WithRSAEncryption
        Issuer: CN=CA1_sha256_4096_65537_v3_ca
        Validity
            Not Before: Sep 20 13:15:28 2022 GMT
            Not After : Sep 15 13:15:28 2042 GMT
        Subject: CN=SRK2_sha256_4096_65537_v3_ca
        Subject Public Key Info:
            Public Key Algorithm: rsaEncryption
                RSA Public-Key: (4096 bit)
                Modulus:
                    00:c4:af:8c:ce:5d:2f:6b:30:f3:eb:3a:ee:4a:d4:
                    2f:c0:00:20:6e:22:0d:8c:59:47:0e:79:ac:9c:2c:
                    54:e1:cf:2b:7d:7d:0f:d8:b9:7d:8d:5f:c6:28:87:
                    ea:f6:57:c4:45:50:72:2d:06:b2:1d:bf:12:fa:d2:
                    2f:b1:07:fb:9d:9c:f8:9a:24:fd:22:22:5d:23:fc:
                    91:57:a6:10:2c:13:56:ae:af:13:49:6f:44:ff:0f:
                    dc:47:92:5f:d3:e8:59:7e:05:98:e7:cd:52:7c:a1:
                    2c:70:80:3a:2f:c8:b9:89:6c:be:13:78:db:0d:5f:
                    82:56:a8:3c:75:f0:cc:3d:54:53:73:07:53:97:fa:
                    2f:da:c8:de:6a:02:d0:33:01:ae:7d:94:d2:11:1d:
                    e0:fe:93:41:9f:4e:57:f2:73:76:cd:8c:03:9b:7a:
                    47:a1:46:30:d0:65:89:d9:c2:72:b1:b8:77:ea:be:
                    34:3d:eb:c7:5d:0a:a8:2e:88:b5:96:4e:df:6e:7a:
                    19:15:4f:79:38:7b:e3:3d:32:e9:28:ed:4e:8a:93:
                    2c:1f:e2:a1:8d:3f:df:0c:df:1f:44:df:5f:7b:85:
                    5a:98:4a:e1:36:b6:24:69:4d:67:1d:e4:f7:56:d0:
                    41:e4:3d:a9:ab:ce:4a:d7:78:9f:e9:63:bf:da:d8:
                    f9:c7:e6:b7:c3:45:9a:d5:80:59:08:05:36:a6:be:
                    4b:a0:8d:d3:eb:cf:60:f9:3a:eb:69:48:59:14:2c:
                    c4:a0:c3:4f:93:5b:5b:46:e1:e0:af:1b:4a:97:94:
                    37:a3:db:bc:e1:c4:56:e8:f9:30:12:5c:d1:9a:44:
                    aa:49:ff:88:65:62:8d:f6:12:12:f8:93:fa:4c:46:
                    ae:4b:21:1b:3b:32:5a:c2:53:41:64:c7:fb:6b:72:
                    72:b1:2d:de:7a:7a:fb:92:56:56:02:d1:e2:10:60:
                    bd:b5:eb:26:b5:d7:2a:04:73:e0:3b:55:ef:ad:b2:
                    44:15:95:65:3f:4c:c9:61:91:fa:7a:c5:f2:40:00:
                    e6:d1:39:a4:6a:ea:87:06:42:d7:b5:1d:fe:70:86:
                    f1:68:be:16:28:88:8f:47:c8:bb:b5:40:f4:26:63:
                    18:11:3e:01:68:7c:c5:0a:6f:41:13:e8:cd:a3:df:
                    2d:eb:81:d5:f9:78:b6:4d:83:8d:11:25:18:7e:fe:
                    e8:c5:dd:32:94:3e:46:e2:7c:fc:97:11:0b:63:5c:
                    3f:4c:cd:ac:17:10:8b:27:f1:e5:9c:c1:5f:8d:47:
                    5f:47:67:97:00:09:a5:b1:66:14:44:de:e3:73:af:
                    9d:8c:74:6e:2f:d2:17:73:d8:39:c5:cb:b5:e1:8a:
                    08:a9:e1
                Exponent: 65537 (0x10001)
        X509v3 extensions:
            X509v3 Subject Key Identifier: 
                4D:C7:5F:65:57:A4:85:B9:66:01:FE:4C:87:1A:55:7F:46:41:AF:00
            X509v3 Authority Key Identifier: 
                keyid:A7:18:6C:65:C9:0E:27:C7:24:66:00:07:50:32:AE:F6:AA:78:9B:ED
                DirName:/CN=CA1_sha256_4096_65537_v3_ca
                serial:24:09:92:5B:DF:92:4D:82:82:E1:96:BD:80:D6:07:DB:CA:9C:58:64

            X509v3 Basic Constraints: critical
                CA:TRUE
            X509v3 Key Usage: 
                Certificate Sign
    Signature Algorithm: sha256WithRSAEncryption
         5a:76:54:19:a1:4f:cc:e9:c4:bd:b0:3a:39:f4:44:6d:84:0c:
         49:35:81:27:77:de:bb:d7:93:04:6b:df:7d:0c:39:5c:07:82:
         d8:0b:9a:b7:99:af:5f:93:49:1a:18:74:d8:29:e0:31:98:1b:
         a6:b5:46:b6:13:f3:81:20:32:aa:70:90:01:42:50:61:d0:9a:
         54:ff:85:a4:75:7c:44:19:0a:ac:57:5d:05:b9:33:95:a7:4c:
         31:ca:3a:8c:23:04:02:9f:0d:fe:36:89:9b:de:78:5c:7c:ba:
         50:61:10:82:10:56:86:80:8b:0c:5f:fd:ca:33:b6:2b:5b:fb:
         c2:b9:fd:76:07:0b:69:f6:04:36:1a:0f:a8:8b:c4:a5:62:c0:
         c5:df:f7:6a:d0:b6:f6:b6:01:93:fd:e9:b9:fb:6f:89:34:22:
         44:eb:7f:0c:a8:03:6b:59:c3:35:86:d1:3f:ce:09:1f:a9:fb:
         a0:4d:26:27:5f:6f:09:be:87:fc:6e:e2:6e:e3:1b:bf:c6:fd:
         55:a5:e9:55:10:f1:2d:c9:8b:02:fd:14:fa:38:ad:42:3a:2f:
         27:d7:d0:65:6e:83:22:34:60:f3:87:15:b4:a6:9a:fb:fe:a5:
         dc:1d:ec:a8:eb:7a:a3:bf:b9:8a:8c:62:8f:01:61:82:ea:7f:
         96:b2:43:8e:b5:f9:41:ce:94:41:ae:32:cd:1c:2f:2c:23:ee:
         4d:00:bc:a9:58:57:fc:bb:08:da:e5:e6:05:29:d4:c6:b8:1d:
         bb:be:6e:4d:d9:ba:d1:02:ac:fd:b5:96:61:78:36:92:71:5b:
         74:4a:76:f6:f0:1f:4a:df:49:46:2d:39:6a:5e:1f:d3:1c:de:
         97:25:60:72:65:ee:06:b1:42:56:7a:fe:8b:3a:01:48:f8:ed:
         80:8d:84:96:47:4d:a0:61:05:b5:57:dc:cd:ca:bc:9c:27:19:
         00:c3:73:1a:7f:0e:d7:88:5f:50:aa:da:1c:4c:ec:03:d8:42:
         26:7e:fe:9d:98:79:dd:a6:32:da:e3:d3:35:25:34:04:4d:5a:
         f1:99:21:36:14:0c:e4:48:31:24:67:b9:58:7e:61:5e:3f:48:
         ad:c4:aa:1e:09:8b:84:2b:3d:29:7a:b6:dc:1e:d8:d6:17:d4:
         4c:c0:68:12:b8:24:99:1b:b3:5e:df:33:d3:7c:2b:c0:7f:8d:
         39:0d:d6:d8:08:f4:30:06:80:ce:6c:f0:aa:48:01:7e:13:b5:
         02:72:11:fe:eb:e4:09:3b:9e:39:08:d6:29:59:c7:35:67:19:
         74:dc:5a:2d:c4:55:8e:1f:fb:53:13:a2:5d:21:20:a2:b8:34:
         26:3d:f9:a6:1a:37:29:5d
-----BEGIN CERTIFICATE-----
MIIFbzCCA1egAwIBAgIEEjRWezANBgkqhkiG9w0BAQsFADAmMSQwIgYDVQQDFBtD
QTFfc2hhMjU2XzQwOTZfNjU1MzdfdjNfY2EwHhcNMjIwOTIwMTMxNTI4WhcNNDIw
OTE1MTMxNTI4WjAnMSUwIwYDVQQDDBxTUksyX3NoYTI1Nl80MDk2XzY1NTM3X3Yz
X2NhMIICIjANBgkqhkiG9w0BAQEFAAOCAg8AMIICCgKCAgEAxK+Mzl0vazDz6zru
StQvwAAgbiINjFlHDnmsnCxU4c8rfX0P2Ll9jV/GKIfq9lfERVByLQayHb8S+tIv
sQf7nZz4miT9IiJdI/yRV6YQLBNWrq8TSW9E/w/cR5Jf0+hZfgWY581SfKEscIA6
L8i5iWy+E3jbDV+CVqg8dfDMPVRTcwdTl/ov2sjeagLQMwGufZTSER3g/pNBn05X
8nN2zYwDm3pHoUYw0GWJ2cJysbh36r40PevHXQqoLoi1lk7fbnoZFU95OHvjPTLp
KO1OipMsH+KhjT/fDN8fRN9fe4VamErhNrYkaU1nHeT3VtBB5D2pq85K13if6WO/
2tj5x+a3w0Wa1YBZCAU2pr5LoI3T689g+TrraUhZFCzEoMNPk1tbRuHgrxtKl5Q3
o9u84cRW6PkwElzRmkSqSf+IZWKN9hIS+JP6TEauSyEbOzJawlNBZMf7a3JysS3e
enr7klZWAtHiEGC9tesmtdcqBHPgO1XvrbJEFZVlP0zJYZH6esXyQADm0TmkauqH
BkLXtR3+cIbxaL4WKIiPR8i7tUD0JmMYET4BaHzFCm9BE+jNo98t64HV+Xi2TYON
ESUYfv7oxd0ylD5G4nz8lxELY1w/TM2sFxCLJ/HlnMFfjUdfR2eXAAmlsWYURN7j
c6+djHRuL9IXc9g5xcu14YoIqeECAwEAAaOBozCBoDAdBgNVHQ4EFgQUTcdfZVek
hblmAf5MhxpVf0ZBrwAwYQYDVR0jBFowWIAUpxhsZckOJ8ckZgAHUDKu9qp4m+2h
KqQoMCYxJDAiBgNVBAMUG0NBMV9zaGEyNTZfNDA5Nl82NTUzN192M19jYYIUJAmS
W9+STYKC4Za9gNYH28qcWGQwDwYDVR0TAQH/BAUwAwEB/zALBgNVHQ8EBAMCAgQw
DQYJKoZIhvcNAQELBQADggIBAFp2VBmhT8zpxL2wOjn0RG2EDEk1gSd33rvXkwRr
330MOVwHgtgLmreZr1+TSRoYdNgp4DGYG6a1RrYT84EgMqpwkAFCUGHQmlT/haR1
fEQZCqxXXQW5M5WnTDHKOowjBAKfDf42iZveeFx8ulBhEIIQVoaAiwxf/coztitb
+8K5/XYHC2n2BDYaD6iLxKViwMXf92rQtva2AZP96bn7b4k0IkTrfwyoA2tZwzWG
0T/OCR+p+6BNJidfbwm+h/xu4m7jG7/G/VWl6VUQ8S3JiwL9FPo4rUI6LyfX0GVu
gyI0YPOHFbSmmvv+pdwd7KjreqO/uYqMYo8BYYLqf5ayQ461+UHOlEGuMs0cLywj
7k0AvKlYV/y7CNrl5gUp1Ma4Hbu+bk3ZutECrP21lmF4NpJxW3RKdvbwH0rfSUYt
OWpeH9Mc3pclYHJl7gaxQlZ6/os6AUj47YCNhJZHTaBhBbVX3M3KvJwnGQDDcxp/
DteIX1Cq2hxM7APYQiZ+/p2Yed2mMtrj0zUlNARNWvGZITYUDORIMSRnuVh+YV4/
SK3Eqh4Ji4QrPSl6ttwe2NYX1EzAaBK4JJkbs17fM9N8K8B/jTkN1tgI9DAGgM5s
8KpIAX4TtQJyEf7r5Ak7njkI1ilZxzVnGXTcWi3EVY4f+1MTol0hIKK4NCY9+aYa
Nyld
-----END CERTIFICATE-----
