Certificate:
    Data:
        Version: 3 (0x2)
        Serial Number: 305419906 (0x12345682)
        Signature Algorithm: sha256WithRSAEncryption
        Issuer: CN=SRK4_sha256_4096_65537_v3_ca
        Validity
            Not Before: Sep 20 13:15:32 2022 GMT
            Not After : Sep 15 13:15:32 2042 GMT
        Subject: CN=CSF4_1_sha256_4096_65537_v3_usr
        Subject Public Key Info:
            Public Key Algorithm: rsaEncryption
                RSA Public-Key: (4096 bit)
                Modulus:
                    00:bf:87:68:48:d3:b9:65:85:5d:a9:3e:ac:e1:43:
                    1f:3a:36:22:83:ef:68:14:e1:58:07:c1:89:ae:d7:
                    f8:ba:69:72:13:fc:78:ce:0e:a3:e8:1d:7d:dc:14:
                    69:87:2f:11:fa:18:79:f5:e8:5b:39:c8:2d:bf:84:
                    0d:b8:d0:2a:c1:06:26:70:bc:44:b4:51:bf:00:a9:
                    65:a1:3b:e4:ec:61:a4:0f:a6:97:74:89:e1:d6:73:
                    76:c6:62:4d:d1:4d:c8:d8:ce:0b:df:ee:19:c5:47:
                    a3:a4:9f:7e:b8:91:d0:0c:f2:a9:1e:bc:9f:29:23:
                    cd:21:0c:20:72:8c:c3:cf:5e:1f:9c:b8:e6:56:93:
                    d7:c1:f6:c8:80:fb:0f:66:10:41:7f:28:ef:f3:21:
                    7a:ff:f3:2b:1e:7b:43:5b:a7:05:ed:01:e2:c9:5d:
                    92:a5:96:c0:48:10:31:fe:70:b8:cb:b4:f7:54:93:
                    a2:9e:e8:24:87:79:b8:b5:ac:15:11:29:89:82:ed:
                    bb:c7:f2:0f:5d:f3:b6:73:43:4c:82:34:5f:2c:c5:
                    44:20:e9:18:fa:8a:99:e4:d7:67:44:5c:f3:f5:ee:
                    bc:ca:5e:d9:39:ae:02:81:ce:4b:c1:ea:e8:04:1e:
                    5a:e5:a3:18:6c:16:51:36:3a:f7:3b:7a:25:b4:0c:
                    d5:de:2d:e5:ab:3f:97:c3:8c:a9:fe:de:42:92:d9:
                    56:36:0a:1c:cf:14:c0:55:d8:44:ba:92:41:4b:86:
                    fd:5e:d4:28:e0:df:51:e7:2f:3d:ee:de:96:30:99:
                    79:2a:24:8e:20:d1:0f:e4:e4:77:aa:5b:14:b7:7a:
                    15:13:b9:27:6b:8c:d9:b9:82:8a:b2:d8:aa:f4:55:
                    2c:95:9d:f6:4e:92:ea:e2:f0:c3:0a:10:46:e1:69:
                    90:1e:91:55:f0:b2:0b:2b:19:fc:7e:80:6b:d3:c1:
                    01:5b:93:d8:6c:7d:b1:b1:3a:e9:d9:04:71:f7:92:
                    cd:d6:c7:49:87:e0:1c:7c:84:7f:75:fd:fc:0d:52:
                    b8:b5:88:f0:b2:71:40:14:5c:ad:e9:4c:e2:62:37:
                    67:da:84:a4:d4:33:c1:40:f2:fc:0a:ba:4f:35:8b:
                    15:0c:14:41:41:97:be:8b:78:3c:e9:fb:a5:0d:87:
                    10:0b:59:9b:f0:72:d9:12:08:a6:a5:ff:72:50:48:
                    a9:a7:de:61:3c:47:b2:6d:5c:aa:7c:13:7e:55:aa:
                    6b:53:48:9b:7c:e3:3e:af:4f:37:9c:cf:d4:11:96:
                    8e:7f:03:98:8c:0d:c2:a2:bd:34:af:e3:3c:d1:bc:
                    69:f1:d1:7a:b4:75:0e:6b:b6:cd:29:d0:0a:cb:67:
                    6c:28:b1
                Exponent: 65537 (0x10001)
        X509v3 extensions:
            X509v3 Basic Constraints: 
                CA:FALSE
            Netscape Comment: 
                OpenSSL Generated Certificate
            X509v3 Subject Key Identifier: 
                B6:6A:46:86:31:C0:50:F6:38:D3:37:D9:5C:5A:AD:D9:F4:A2:32:C3
            X509v3 Authority Key Identifier: 
                keyid:60:72:52:76:C0:6B:04:B9:96:1C:81:05:EB:E6:40:59:D2:BD:92:49

    Signature Algorithm: sha256WithRSAEncryption
         3b:7e:76:51:f4:56:8d:65:0a:db:2d:50:cf:6a:be:2e:2c:80:
         18:a1:0b:62:02:58:f5:47:0c:8e:d0:1b:a5:2f:87:22:9d:e0:
         d8:1f:1e:41:ec:66:e5:07:5b:76:bb:fb:fd:a1:30:61:5a:39:
         71:a6:1c:eb:71:d7:c9:2a:e5:c2:89:7d:bc:16:0a:62:de:d3:
         3b:0a:34:b5:6d:29:64:98:d9:89:73:5e:37:2a:33:27:41:85:
         d0:86:5f:59:4e:ae:b1:75:19:f9:19:aa:35:d0:d4:d5:62:09:
         1c:86:9e:87:6e:15:7e:1b:ac:96:63:92:c3:6b:5a:12:6f:dd:
         b3:64:93:b2:fd:27:c8:1b:e9:cc:b1:ab:2c:5a:3e:09:86:87:
         07:ff:2c:c5:40:42:aa:5e:ed:1a:15:a8:eb:e0:fd:86:62:0f:
         f5:c8:16:37:51:28:d6:94:12:e2:7b:18:43:15:96:fb:1e:98:
         4f:86:d4:c9:a6:a2:52:98:37:4a:7f:26:f1:78:b8:f9:22:90:
         52:d1:71:91:28:7a:f3:41:93:b9:60:71:2f:c2:d9:38:4e:78:
         61:83:4e:78:42:e1:b9:7e:1c:1d:82:02:a4:03:8c:8c:7c:06:
         c0:7f:d7:6d:94:17:a6:a1:43:a1:db:10:02:fc:fa:ed:b4:2c:
         bf:55:c7:3f:e4:97:aa:b9:16:9e:73:fe:ac:7a:7b:dc:e3:84:
         a2:d7:5c:a7:3e:c6:07:12:2c:9f:fe:85:4a:9c:b9:d3:e5:c2:
         9a:c1:0c:03:07:d1:97:1f:0f:06:98:b1:65:c3:89:77:3f:b9:
         fd:6d:0c:cc:56:9f:5f:d3:ab:b7:d0:7a:3b:78:7c:82:84:d5:
         d4:b8:87:f9:73:08:a8:b8:79:a6:17:1a:cd:e2:fa:02:6d:de:
         f2:1b:dc:98:c7:99:a0:ac:f1:ef:91:f0:13:b4:94:90:15:1c:
         d3:5e:18:b8:3a:de:a5:50:d8:ab:73:de:0c:21:2d:49:fe:34:
         8f:85:e0:f6:fb:7d:7e:ff:b3:cc:d9:66:42:7c:26:b6:25:f4:
         04:cb:e2:8a:b0:a2:82:a6:41:25:0e:32:09:da:84:9d:de:76:
         2d:2a:54:e7:49:88:03:dd:7e:39:18:03:88:25:df:c2:2f:05:
         05:d0:7f:65:a8:bc:e5:2a:75:a3:73:7d:9d:c8:0f:d1:65:92:
         20:c4:04:4c:b5:f1:d3:17:ce:93:38:92:bf:32:78:9a:6a:24:
         57:75:96:f6:4e:32:86:45:ab:58:be:7c:ec:69:13:32:2e:38:
         2d:92:ff:0d:ee:e8:32:da:5a:90:10:18:d1:61:ca:60:e6:77:
         25:50:1d:89:b2:b0:a6:8f
-----BEGIN CERTIFICATE-----
MIIFSjCCAzKgAwIBAgIEEjRWgjANBgkqhkiG9w0BAQsFADAnMSUwIwYDVQQDDBxT
Uks0X3NoYTI1Nl80MDk2XzY1NTM3X3YzX2NhMB4XDTIyMDkyMDEzMTUzMloXDTQy
MDkxNTEzMTUzMlowKjEoMCYGA1UEAwwfQ1NGNF8xX3NoYTI1Nl80MDk2XzY1NTM3
X3YzX3VzcjCCAiIwDQYJKoZIhvcNAQEBBQADggIPADCCAgoCggIBAL+HaEjTuWWF
Xak+rOFDHzo2IoPvaBThWAfBia7X+LppchP8eM4Oo+gdfdwUaYcvEfoYefXoWznI
Lb+EDbjQKsEGJnC8RLRRvwCpZaE75OxhpA+ml3SJ4dZzdsZiTdFNyNjOC9/uGcVH
o6SffriR0AzyqR68nykjzSEMIHKMw89eH5y45laT18H2yID7D2YQQX8o7/Mhev/z
Kx57Q1unBe0B4sldkqWWwEgQMf5wuMu091STop7oJId5uLWsFREpiYLtu8fyD13z
tnNDTII0XyzFRCDpGPqKmeTXZ0Rc8/XuvMpe2TmuAoHOS8Hq6AQeWuWjGGwWUTY6
9zt6JbQM1d4t5as/l8OMqf7eQpLZVjYKHM8UwFXYRLqSQUuG/V7UKODfUecvPe7e
ljCZeSokjiDRD+Tkd6pbFLd6FRO5J2uM2bmCirLYqvRVLJWd9k6S6uLwwwoQRuFp
kB6RVfCyCysZ/H6Aa9PBAVuT2Gx9sbE66dkEcfeSzdbHSYfgHHyEf3X9/A1SuLWI
8LJxQBRcrelM4mI3Z9qEpNQzwUDy/Aq6TzWLFQwUQUGXvot4POn7pQ2HEAtZm/By
2RIIpqX/clBIqafeYTxHsm1cqnwTflWqa1NIm3zjPq9PN5zP1BGWjn8DmIwNwqK9
NK/jPNG8afHRerR1Dmu2zSnQCstnbCixAgMBAAGjezB5MAkGA1UdEwQCMAAwLAYJ
YIZIAYb4QgENBB8WHU9wZW5TU0wgR2VuZXJhdGVkIENlcnRpZmljYXRlMB0GA1Ud
DgQWBBS2akaGMcBQ9jjTN9lcWq3Z9KIywzAfBgNVHSMEGDAWgBRgclJ2wGsEuZYc
gQXr5kBZ0r2SSTANBgkqhkiG9w0BAQsFAAOCAgEAO352UfRWjWUK2y1Qz2q+LiyA
GKELYgJY9UcMjtAbpS+HIp3g2B8eQexm5Qdbdrv7/aEwYVo5caYc63HXySrlwol9
vBYKYt7TOwo0tW0pZJjZiXNeNyozJ0GF0IZfWU6usXUZ+RmqNdDU1WIJHIaeh24V
fhuslmOSw2taEm/ds2STsv0nyBvpzLGrLFo+CYaHB/8sxUBCql7tGhWo6+D9hmIP
9cgWN1Eo1pQS4nsYQxWW+x6YT4bUyaaiUpg3Sn8m8Xi4+SKQUtFxkSh680GTuWBx
L8LZOE54YYNOeELhuX4cHYICpAOMjHwGwH/XbZQXpqFDodsQAvz67bQsv1XHP+SX
qrkWnnP+rHp73OOEotdcpz7GBxIsn/6FSpy50+XCmsEMAwfRlx8PBpixZcOJdz+5
/W0MzFafX9Ort9B6O3h8goTV1LiH+XMIqLh5phcazeL6Am3e8hvcmMeZoKzx75Hw
E7SUkBUc014YuDrepVDYq3PeDCEtSf40j4Xg9vt9fv+zzNlmQnwmtiX0BMviirCi
gqZBJQ4yCdqEnd52LSpU50mIA91+ORgDiCXfwi8FBdB/Zai85Sp1o3N9ncgP0WWS
IMQETLXx0xfOkziSvzJ4mmokV3WW9k4yhkWrWL587GkTMi44LZL/De7oMtpakBAY
0WHKYOZ3JVAdibKwpo8=
-----END CERTIFICATE-----
