Certificate:
    Data:
        Version: 3 (0x2)
        Serial Number: 305419897 (0x12345679)
        Signature Algorithm: sha256WithRSAEncryption
        Issuer: CN=SRK1_sha256_4096_65537_v3_ca
        Validity
            Not Before: Sep 20 13:15:28 2022 GMT
            Not After : Sep 15 13:15:28 2042 GMT
        Subject: CN=CSF1_1_sha256_4096_65537_v3_usr
        Subject Public Key Info:
            Public Key Algorithm: rsaEncryption
                RSA Public-Key: (4096 bit)
                Modulus:
                    00:bc:50:fa:b9:50:7f:3a:e0:8a:be:46:06:81:e4:
                    d1:a9:5e:91:16:82:f0:7a:cf:d1:ff:ca:f6:cc:5a:
                    a7:6a:e0:41:a1:64:7b:b3:97:69:99:4e:4d:26:b8:
                    02:4a:7f:6a:0f:c5:63:bc:05:0d:58:8e:48:3b:9b:
                    28:08:da:c1:8c:f7:e8:fb:52:6f:d3:8a:61:22:9c:
                    60:44:ad:65:62:fa:0b:90:5a:00:e8:cd:f2:4e:69:
                    35:a1:ff:20:db:83:61:f5:6f:94:10:4c:a9:83:f8:
                    24:b1:15:e9:3c:28:a1:72:68:cb:14:ee:f3:87:0b:
                    27:c8:c6:b0:4a:c5:e9:02:b2:13:25:3e:b4:db:aa:
                    53:8f:12:07:b7:8b:fa:1f:37:c4:26:40:f3:b8:b8:
                    cd:7d:16:5b:cd:fb:14:aa:f0:59:a7:73:7b:0c:2a:
                    9e:69:9b:dc:89:23:1e:2c:0a:73:06:fa:ae:3b:e3:
                    e6:8d:b1:e7:88:f7:1d:e9:b1:a7:2a:bc:04:6f:4a:
                    08:c7:af:d1:b7:1b:45:9b:d1:73:49:06:b3:19:42:
                    6d:bc:9a:a0:2b:c4:34:f9:28:32:d2:d0:04:77:fe:
                    21:fa:bc:27:ef:d3:fb:ee:db:8a:ee:11:16:a3:4f:
                    f6:1a:e0:31:4b:15:4e:d3:ca:05:c9:3a:78:25:52:
                    60:6f:de:2f:ae:90:27:9a:4a:1b:09:3f:06:d3:92:
                    03:98:ca:0a:0a:46:83:3b:a3:ca:08:5b:29:dc:be:
                    4c:40:dc:49:1f:02:89:a9:f4:84:1a:74:5e:60:7c:
                    5c:0a:e1:cc:de:06:a3:b7:8d:01:b2:8a:61:21:0d:
                    f0:41:34:d5:39:77:71:32:ce:ee:e3:86:a1:c1:dd:
                    f1:af:dd:34:bd:01:5a:98:50:0c:c1:35:e1:eb:d3:
                    1d:02:2f:16:70:5d:d1:02:e2:c8:a2:bb:48:07:32:
                    d2:d9:d2:02:71:6d:a8:f4:bc:60:54:1f:b1:cc:0b:
                    d1:62:83:93:9c:5d:59:80:71:da:cf:7d:93:fc:2b:
                    46:10:65:6b:9e:ec:5e:43:71:c0:5a:92:f5:4a:2e:
                    eb:61:8f:65:6d:8a:a6:e7:e6:4b:57:34:ac:6e:13:
                    64:43:51:ee:6e:d3:6f:50:6d:71:f3:8c:f8:85:44:
                    f3:ae:27:46:84:eb:11:66:28:3b:5a:f4:d5:f6:63:
                    52:b7:8d:7c:a9:1a:26:51:33:40:52:d8:fa:5a:bd:
                    14:10:d4:ed:b0:ab:40:a8:ae:03:15:c6:6d:00:9e:
                    50:a3:02:53:43:8b:db:6b:e6:f0:91:0f:12:07:4f:
                    0e:42:92:d4:f0:13:18:4f:9f:71:91:d2:d4:07:6d:
                    a1:48:09
                Exponent: 65537 (0x10001)
        X509v3 extensions:
            X509v3 Basic Constraints: 
                CA:FALSE
            Netscape Comment: 
                OpenSSL Generated Certificate
            X509v3 Subject Key Identifier: 
                73:BD:11:B6:A0:04:F1:5D:42:2A:26:39:28:A6:62:62:0A:59:22:3A
            X509v3 Authority Key Identifier: 
                keyid:16:3C:CA:37:08:78:BF:45:10:13:0E:64:F5:3B:FF:A8:FA:3C:DE:1C

    Signature Algorithm: sha256WithRSAEncryption
         32:83:37:70:ea:47:07:80:2c:23:f9:bc:8b:c5:65:0d:ab:cf:
         e9:15:9a:36:52:fb:36:05:06:38:cc:a7:25:fe:8b:54:18:57:
         e0:f0:d1:0a:b0:9c:3f:0a:80:45:31:7c:f3:47:10:d8:b2:3a:
         f5:5f:41:0f:cd:69:6c:c3:fb:4c:6a:f3:91:7d:a3:1a:3c:5e:
         17:c3:21:99:a2:41:02:3f:ad:5a:21:32:ec:20:7c:d1:f5:d5:
         3c:12:c8:55:66:8a:51:e9:d7:c0:b3:6b:e2:32:5e:33:47:d3:
         62:63:7d:5c:24:05:c9:61:8f:b7:74:c8:65:69:3f:30:07:f4:
         d7:eb:18:b2:bf:52:c0:41:02:cb:5d:06:60:09:ff:52:4d:53:
         3c:a4:c9:e8:41:12:d6:bf:a7:e0:16:65:ba:ce:72:e3:25:15:
         d3:41:51:08:60:8c:6a:86:df:14:2e:50:c8:d4:e8:c4:85:b1:
         7e:fb:38:f7:cc:a8:95:fe:fe:9c:43:f7:cc:7a:8f:a9:34:82:
         b3:b9:93:61:7f:20:54:c7:28:94:02:e1:5c:6b:6c:d4:91:21:
         30:4f:1f:a3:87:15:fa:24:f2:bd:04:a4:f6:e8:7e:77:b8:f9:
         f3:42:e5:7b:a3:67:84:b5:56:28:8e:41:29:67:35:35:f1:88:
         4a:61:86:4c:9a:ae:fd:56:b5:3d:3e:aa:95:99:0b:34:3f:76:
         9f:52:24:23:74:ec:b4:c3:90:cb:8e:c9:c2:5f:48:0a:47:0d:
         56:f9:b9:dd:4b:99:1c:64:e7:9b:b5:e4:0a:51:1f:18:04:b2:
         36:09:08:85:a3:6a:e3:df:4a:35:e4:89:a4:4c:1e:4f:1f:7b:
         81:35:69:bf:9e:8e:df:0c:47:45:8d:5c:0f:4d:0c:66:e2:7b:
         79:c9:78:4f:91:33:ac:3b:4f:6b:13:96:6e:5e:84:bf:ad:a5:
         34:01:ea:84:3f:1d:73:11:48:8c:8f:01:82:1f:e7:0e:20:af:
         4c:33:68:ae:e8:38:12:df:7a:c1:1a:f0:4b:5e:02:98:5d:53:
         b4:e1:e3:6c:08:9d:6a:1c:34:cf:46:15:18:20:69:e8:ad:c2:
         98:ef:28:be:87:59:73:8b:2f:56:6d:db:e3:c6:98:89:a2:bd:
         2d:e5:60:a2:41:1c:b5:47:95:f6:ca:fd:ca:6c:35:af:40:5a:
         17:f0:69:cf:eb:85:c8:3d:c4:bb:e8:91:5c:fa:74:a9:a8:54:
         22:ec:3e:b6:58:7b:cb:c4:2f:1e:42:c8:c9:d1:d3:68:72:3c:
         b8:ed:ca:28:f9:73:96:bf:f5:4b:00:aa:99:a5:00:a7:27:4b:
         46:f4:47:1c:cb:84:45:4f
-----BEGIN CERTIFICATE-----
MIIFSjCCAzKgAwIBAgIEEjRWeTANBgkqhkiG9w0BAQsFADAnMSUwIwYDVQQDDBxT
UksxX3NoYTI1Nl80MDk2XzY1NTM3X3YzX2NhMB4XDTIyMDkyMDEzMTUyOFoXDTQy
MDkxNTEzMTUyOFowKjEoMCYGA1UEAwwfQ1NGMV8xX3NoYTI1Nl80MDk2XzY1NTM3
X3YzX3VzcjCCAiIwDQYJKoZIhvcNAQEBBQADggIPADCCAgoCggIBALxQ+rlQfzrg
ir5GBoHk0alekRaC8HrP0f/K9sxap2rgQaFke7OXaZlOTSa4Akp/ag/FY7wFDViO
SDubKAjawYz36PtSb9OKYSKcYEStZWL6C5BaAOjN8k5pNaH/INuDYfVvlBBMqYP4
JLEV6TwooXJoyxTu84cLJ8jGsErF6QKyEyU+tNuqU48SB7eL+h83xCZA87i4zX0W
W837FKrwWadzewwqnmmb3IkjHiwKcwb6rjvj5o2x54j3Hemxpyq8BG9KCMev0bcb
RZvRc0kGsxlCbbyaoCvENPkoMtLQBHf+Ifq8J+/T++7biu4RFqNP9hrgMUsVTtPK
Bck6eCVSYG/eL66QJ5pKGwk/BtOSA5jKCgpGgzujyghbKdy+TEDcSR8Cian0hBp0
XmB8XArhzN4Go7eNAbKKYSEN8EE01Tl3cTLO7uOGocHd8a/dNL0BWphQDME14evT
HQIvFnBd0QLiyKK7SAcy0tnSAnFtqPS8YFQfscwL0WKDk5xdWYBx2s99k/wrRhBl
a57sXkNxwFqS9Uou62GPZW2KpufmS1c0rG4TZENR7m7Tb1BtcfOM+IVE864nRoTr
EWYoO1r01fZjUreNfKkaJlEzQFLY+lq9FBDU7bCrQKiuAxXGbQCeUKMCU0OL22vm
8JEPEgdPDkKS1PATGE+fcZHS1AdtoUgJAgMBAAGjezB5MAkGA1UdEwQCMAAwLAYJ
YIZIAYb4QgENBB8WHU9wZW5TU0wgR2VuZXJhdGVkIENlcnRpZmljYXRlMB0GA1Ud
DgQWBBRzvRG2oATxXUIqJjkopmJiClkiOjAfBgNVHSMEGDAWgBQWPMo3CHi/RRAT
DmT1O/+o+jzeHDANBgkqhkiG9w0BAQsFAAOCAgEAMoM3cOpHB4AsI/m8i8VlDavP
6RWaNlL7NgUGOMynJf6LVBhX4PDRCrCcPwqARTF880cQ2LI69V9BD81pbMP7TGrz
kX2jGjxeF8MhmaJBAj+tWiEy7CB80fXVPBLIVWaKUenXwLNr4jJeM0fTYmN9XCQF
yWGPt3TIZWk/MAf01+sYsr9SwEECy10GYAn/Uk1TPKTJ6EES1r+n4BZlus5y4yUV
00FRCGCMaobfFC5QyNToxIWxfvs498yolf7+nEP3zHqPqTSCs7mTYX8gVMcolALh
XGts1JEhME8fo4cV+iTyvQSk9uh+d7j580Lle6NnhLVWKI5BKWc1NfGISmGGTJqu
/Va1PT6qlZkLND92n1IkI3TstMOQy47Jwl9ICkcNVvm53UuZHGTnm7XkClEfGASy
NgkIhaNq499KNeSJpEweTx97gTVpv56O3wxHRY1cD00MZuJ7ecl4T5EzrDtPaxOW
bl6Ev62lNAHqhD8dcxFIjI8Bgh/nDiCvTDNorug4Et96wRrwS14CmF1TtOHjbAid
ahw0z0YVGCBp6K3CmO8ovodZc4svVm3b48aYiaK9LeVgokEctUeV9sr9ymw1r0Ba
F/Bpz+uFyD3Eu+iRXPp0qahUIuw+tlh7y8QvHkLIydHTaHI8uO3KKPlzlr/1SwCq
maUApydLRvRHHMuERU8=
-----END CERTIFICATE-----
