Certificate:
    Data:
        Version: 3 (0x2)
        Serial Number: 305419903 (0x1234567f)
        Signature Algorithm: sha256WithRSAEncryption
        Issuer: CN=SRK3_sha256_4096_65537_v3_ca
        Validity
            Not Before: Sep 20 13:15:30 2022 GMT
            Not After : Sep 15 13:15:30 2042 GMT
        Subject: CN=CSF3_1_sha256_4096_65537_v3_usr
        Subject Public Key Info:
            Public Key Algorithm: rsaEncryption
                RSA Public-Key: (4096 bit)
                Modulus:
                    00:c0:9f:b8:8b:fc:65:76:39:dc:ec:42:a4:a0:39:
                    71:8b:7d:bd:4f:1c:31:d5:cd:79:bc:c8:50:e7:e8:
                    bc:bb:04:5c:9f:a1:32:9b:f6:9b:ba:41:e1:c4:e6:
                    e6:0f:51:22:ca:53:13:b2:e2:b6:bc:87:3b:82:66:
                    e6:27:8e:2b:82:1c:fb:b0:d1:dc:e5:0a:08:ce:75:
                    d7:94:01:58:b9:7b:95:b0:a9:b1:30:3c:c7:b3:6d:
                    4c:cb:90:46:37:d4:ee:4f:70:0c:d1:85:03:e2:06:
                    65:e7:6a:d4:52:f6:9a:93:7d:22:3f:19:b8:c7:6c:
                    33:73:ac:a5:3e:3e:de:48:3e:e6:92:91:69:87:ad:
                    5c:a9:9d:d4:6e:f4:02:9e:73:05:9f:92:18:fd:63:
                    39:68:16:24:71:e4:71:87:10:d6:91:ef:9c:a7:d1:
                    24:df:4a:2c:e8:2c:fe:1a:08:2b:6f:6e:96:6c:46:
                    bc:7e:b6:14:9a:e4:8a:8e:5d:4c:fe:09:a4:d1:82:
                    3b:91:f7:72:15:64:d8:e4:7f:83:89:f3:42:ff:c0:
                    55:07:e9:b7:75:15:e7:97:5f:dd:cd:b7:29:9d:ed:
                    4d:df:36:3e:14:9d:af:a5:66:a7:f0:af:6c:22:4e:
                    c0:25:b0:7a:3f:38:92:66:72:9c:7b:d7:d4:2b:1d:
                    dd:3c:34:47:f4:41:fa:1c:10:2a:38:0b:0b:38:be:
                    02:2d:5c:bd:50:0b:10:79:2b:b3:70:46:1e:a6:de:
                    71:ca:de:41:e2:d8:81:9e:5c:01:11:65:39:b7:64:
                    a4:45:ea:7f:5f:c7:8b:6e:ff:be:02:2a:6e:68:9d:
                    f7:60:57:11:8a:5e:4f:10:8c:6c:88:34:a4:4d:56:
                    6e:a3:73:4d:ef:ec:db:95:0e:22:f1:c3:a9:bd:d6:
                    76:b8:9a:1a:f3:39:c8:2d:74:07:60:c6:ba:15:38:
                    bd:7b:d1:39:17:66:88:4d:1a:db:18:5a:7f:5f:13:
                    03:39:d9:79:23:0d:62:9c:9a:bd:dd:25:ff:bd:98:
                    55:4a:d6:a5:7d:63:3e:b6:55:e5:1a:80:dc:1a:ad:
                    a3:1f:d0:3f:c0:bb:08:f5:76:96:56:1c:25:cc:31:
                    2a:a6:2f:a4:7c:eb:f3:60:5e:2a:c3:28:db:6b:92:
                    e9:db:55:24:0a:0b:80:36:0e:a0:e4:b5:8a:f0:a0:
                    58:c9:6b:a8:ec:4d:b5:13:86:a8:b7:97:f0:4e:95:
                    88:7f:d2:ee:94:ab:0e:4b:90:c6:44:d7:9b:91:f2:
                    39:43:ba:1f:e0:dd:cd:95:55:2b:1a:4e:4e:0b:fd:
                    38:3f:e6:d0:5e:86:d0:1b:14:44:4b:77:10:38:30:
                    fa:34:9d
                Exponent: 65537 (0x10001)
        X509v3 extensions:
            X509v3 Basic Constraints: 
                CA:FALSE
            Netscape Comment: 
                OpenSSL Generated Certificate
            X509v3 Subject Key Identifier: 
                C9:97:40:B9:8D:2D:4C:F0:95:32:35:29:FD:86:19:E7:A6:9E:81:B3
            X509v3 Authority Key Identifier: 
                keyid:63:7F:BB:8E:C7:1D:83:8B:EA:19:A2:AE:21:53:FD:A0:00:E0:DF:F1

    Signature Algorithm: sha256WithRSAEncryption
         40:d5:3f:0e:1f:22:b0:95:73:09:d3:dd:68:3a:97:4d:13:16:
         0f:91:a3:65:24:03:16:88:8a:54:7a:b8:64:23:ba:ca:bf:8b:
         b6:7b:82:01:ad:32:f6:99:41:1a:7c:03:bd:24:bc:be:f0:ec:
         a8:f0:58:fd:63:12:1e:5d:ed:96:5d:4f:f3:79:e0:fd:f0:28:
         a6:cc:e9:05:9e:79:9e:94:32:33:60:5e:bc:55:b5:86:a3:4b:
         8c:07:1a:1a:dd:ef:92:04:ff:8c:02:b7:f7:de:be:6a:85:5d:
         e4:5c:35:d1:99:85:4d:22:c7:a8:95:b9:75:b9:98:b5:46:62:
         ad:1d:c0:8d:56:6d:a9:13:21:15:a1:f7:2b:b1:4b:ee:f9:3b:
         49:d1:3f:48:e4:ff:ac:92:06:e1:84:38:a5:e4:49:d0:0a:51:
         fc:11:06:91:d3:35:e6:bb:b1:0d:8f:df:4c:99:f9:f4:09:27:
         38:eb:d4:8b:a0:73:69:7d:b1:cc:43:df:af:85:81:34:60:99:
         5d:f2:f6:ee:91:b9:6a:49:62:44:29:e1:3d:72:d2:a1:8d:2b:
         5a:a3:24:e3:d0:2b:02:c2:61:45:7e:cf:6e:5e:cb:76:be:34:
         65:3c:82:6f:fc:e0:69:f7:f6:6f:18:05:35:a6:25:78:5d:98:
         59:03:15:71:1c:d0:24:a7:60:13:3d:c4:06:cf:7f:08:11:52:
         6b:21:3c:7b:55:c6:ff:44:8b:f1:0b:47:89:31:4b:c8:90:be:
         28:2e:b7:48:0e:e3:37:1c:ab:8b:e5:b1:9c:ab:19:26:77:3c:
         72:69:79:a4:3e:82:bc:17:4b:f3:79:d1:e2:cc:7d:58:f9:5a:
         07:71:6f:1a:a6:91:69:83:76:dc:8c:95:af:41:ed:79:d1:d5:
         02:6b:01:35:81:e6:3c:68:ad:64:b5:0b:77:08:8c:de:95:18:
         bd:2b:2f:70:23:8c:bb:f6:9a:96:cd:31:d4:48:2c:b5:98:16:
         a2:24:39:36:f2:bd:13:86:95:1f:b3:ce:d5:4c:84:e4:6d:73:
         54:6c:66:64:b8:6b:70:eb:4a:d5:c1:43:46:70:10:c0:9e:0f:
         47:63:c4:b7:44:0b:95:54:b3:4b:43:74:54:79:8a:c7:db:c3:
         f3:31:69:4e:bc:e9:f3:c2:66:30:7c:73:fb:be:5f:51:75:ce:
         98:4c:5f:bc:e5:24:d1:47:29:1b:a0:4e:8f:02:eb:37:bf:48:
         52:14:d7:b1:a3:14:67:26:6a:9f:60:7c:cb:8c:75:4c:48:9f:
         8a:5b:88:16:0c:b6:a5:e6:cf:38:5f:09:48:a3:76:50:f8:bf:
         89:33:d1:f5:81:72:51:31
-----BEGIN CERTIFICATE-----
MIIFSjCCAzKgAwIBAgIEEjRWfzANBgkqhkiG9w0BAQsFADAnMSUwIwYDVQQDDBxT
UkszX3NoYTI1Nl80MDk2XzY1NTM3X3YzX2NhMB4XDTIyMDkyMDEzMTUzMFoXDTQy
MDkxNTEzMTUzMFowKjEoMCYGA1UEAwwfQ1NGM18xX3NoYTI1Nl80MDk2XzY1NTM3
X3YzX3VzcjCCAiIwDQYJKoZIhvcNAQEBBQADggIPADCCAgoCggIBAMCfuIv8ZXY5
3OxCpKA5cYt9vU8cMdXNebzIUOfovLsEXJ+hMpv2m7pB4cTm5g9RIspTE7LitryH
O4Jm5ieOK4Ic+7DR3OUKCM5115QBWLl7lbCpsTA8x7NtTMuQRjfU7k9wDNGFA+IG
Zedq1FL2mpN9Ij8ZuMdsM3OspT4+3kg+5pKRaYetXKmd1G70Ap5zBZ+SGP1jOWgW
JHHkcYcQ1pHvnKfRJN9KLOgs/hoIK29ulmxGvH62FJrkio5dTP4JpNGCO5H3chVk
2OR/g4nzQv/AVQfpt3UV55df3c23KZ3tTd82PhSdr6Vmp/CvbCJOwCWwej84kmZy
nHvX1Csd3Tw0R/RB+hwQKjgLCzi+Ai1cvVALEHkrs3BGHqbeccreQeLYgZ5cARFl
ObdkpEXqf1/Hi27/vgIqbmid92BXEYpeTxCMbIg0pE1WbqNzTe/s25UOIvHDqb3W
driaGvM5yC10B2DGuhU4vXvRORdmiE0a2xhaf18TAznZeSMNYpyavd0l/72YVUrW
pX1jPrZV5RqA3Bqtox/QP8C7CPV2llYcJcwxKqYvpHzr82BeKsMo22uS6dtVJAoL
gDYOoOS1ivCgWMlrqOxNtROGqLeX8E6ViH/S7pSrDkuQxkTXm5HyOUO6H+DdzZVV
KxpOTgv9OD/m0F6G0BsUREt3EDgw+jSdAgMBAAGjezB5MAkGA1UdEwQCMAAwLAYJ
YIZIAYb4QgENBB8WHU9wZW5TU0wgR2VuZXJhdGVkIENlcnRpZmljYXRlMB0GA1Ud
DgQWBBTJl0C5jS1M8JUyNSn9hhnnpp6BszAfBgNVHSMEGDAWgBRjf7uOxx2Di+oZ
oq4hU/2gAODf8TANBgkqhkiG9w0BAQsFAAOCAgEAQNU/Dh8isJVzCdPdaDqXTRMW
D5GjZSQDFoiKVHq4ZCO6yr+LtnuCAa0y9plBGnwDvSS8vvDsqPBY/WMSHl3tll1P
83ng/fAopszpBZ55npQyM2BevFW1hqNLjAcaGt3vkgT/jAK3996+aoVd5Fw10ZmF
TSLHqJW5dbmYtUZirR3AjVZtqRMhFaH3K7FL7vk7SdE/SOT/rJIG4YQ4peRJ0ApR
/BEGkdM15ruxDY/fTJn59AknOOvUi6BzaX2xzEPfr4WBNGCZXfL27pG5akliRCnh
PXLSoY0rWqMk49ArAsJhRX7Pbl7Ldr40ZTyCb/zgaff2bxgFNaYleF2YWQMVcRzQ
JKdgEz3EBs9/CBFSayE8e1XG/0SL8QtHiTFLyJC+KC63SA7jNxyri+WxnKsZJnc8
cml5pD6CvBdL83nR4sx9WPlaB3FvGqaRaYN23IyVr0HtedHVAmsBNYHmPGitZLUL
dwiM3pUYvSsvcCOMu/aals0x1EgstZgWoiQ5NvK9E4aVH7PO1UyE5G1zVGxmZLhr
cOtK1cFDRnAQwJ4PR2PEt0QLlVSzS0N0VHmKx9vD8zFpTrzp88JmMHxz+75fUXXO
mExfvOUk0UcpG6BOjwLrN79IUhTXsaMUZyZqn2B8y4x1TEifiluIFgy2pebPOF8J
SKN2UPi/iTPR9YFyUTE=
-----END CERTIFICATE-----
