Certificate:
    Data:
        Version: 3 (0x2)
        Serial Number: 305419900 (0x1234567c)
        Signature Algorithm: sha256WithRSAEncryption
        Issuer: CN=SRK2_sha256_4096_65537_v3_ca
        Validity
            Not Before: Sep 20 13:15:29 2022 GMT
            Not After : Sep 15 13:15:29 2042 GMT
        Subject: CN=CSF2_1_sha256_4096_65537_v3_usr
        Subject Public Key Info:
            Public Key Algorithm: rsaEncryption
                RSA Public-Key: (4096 bit)
                Modulus:
                    00:ca:38:39:af:51:2f:86:f2:e3:dd:45:88:d4:13:
                    2b:20:22:44:57:d6:b4:0e:57:79:77:5c:97:9a:a1:
                    23:f1:cb:7c:7a:7d:9e:98:02:29:cf:0a:fd:ac:2d:
                    55:c7:57:c5:5c:4e:fc:a5:15:d7:6d:30:05:50:92:
                    44:6e:46:d4:d0:60:93:d7:d3:1a:fd:48:f9:81:a8:
                    23:5b:61:a0:44:89:64:4c:7f:31:a7:68:48:c2:c9:
                    5d:b6:c1:b2:89:93:cc:2c:6e:1d:61:70:ef:fe:bf:
                    f1:87:e9:17:d8:18:14:4d:09:1b:ac:da:3f:30:96:
                    81:54:78:b4:96:60:46:ee:6f:c7:80:5d:98:8f:5f:
                    80:de:a2:1f:19:c6:22:f3:3d:3a:2e:6b:c0:6c:2a:
                    ca:79:dd:ae:c4:87:54:21:81:3d:5c:12:b7:04:69:
                    46:0b:6d:af:3d:9b:8d:ae:fa:d7:37:12:c1:8b:a7:
                    a2:1f:aa:14:5b:cb:7b:11:a8:16:5a:0d:9e:8c:63:
                    92:86:17:62:20:2f:85:6b:17:9e:ad:df:69:46:a1:
                    5b:3b:1e:f0:45:e8:76:0a:c8:a5:28:3e:54:a3:96:
                    1e:08:e1:ad:b0:26:b5:3b:93:08:39:32:d7:50:20:
                    9d:19:b8:81:7b:93:5b:91:de:c6:82:10:d9:3b:65:
                    46:c7:92:b1:63:5f:60:bb:b4:33:7e:4d:29:10:c0:
                    22:38:83:40:47:7d:6c:de:aa:51:18:f5:19:ed:39:
                    d5:b1:87:32:82:62:ce:32:64:bc:25:91:58:d5:4b:
                    bc:e0:e5:c1:c5:2d:76:d7:fd:8a:99:b3:7e:62:85:
                    dd:58:c4:3c:7b:60:41:19:f3:19:fa:bd:b0:d4:8c:
                    5e:8a:b9:84:cc:94:bf:ae:a2:8c:7e:74:68:e9:b8:
                    16:ce:45:c0:92:da:50:75:0c:e3:07:33:6c:b2:bd:
                    11:0e:e2:c1:e2:fe:71:73:00:a4:4d:f8:e8:b2:fe:
                    1e:b2:89:43:f3:31:97:06:cf:af:a9:5e:dd:be:79:
                    7c:d4:ca:40:45:19:96:71:5e:86:90:b8:4f:42:46:
                    04:8e:c6:e5:19:05:5c:a9:3b:42:77:8b:35:92:a6:
                    d5:ee:4c:6c:23:d7:be:58:c9:03:92:61:45:23:90:
                    b4:4d:9e:a9:04:2c:a0:c6:e6:09:69:6a:99:ba:04:
                    f9:96:0d:93:d3:96:8f:27:da:28:3c:14:99:f3:35:
                    e3:29:55:10:98:c4:db:b4:69:44:84:6a:ee:94:1d:
                    7b:b1:c9:be:ba:d0:ba:76:cd:e0:84:5a:47:5d:a4:
                    63:3a:63:cf:cb:ea:f1:ee:d3:6d:13:bb:e1:b1:90:
                    70:73:a1
                Exponent: 65537 (0x10001)
        X509v3 extensions:
            X509v3 Basic Constraints: 
                CA:FALSE
            Netscape Comment: 
                OpenSSL Generated Certificate
            X509v3 Subject Key Identifier: 
                CC:1A:31:C6:82:76:65:95:27:D0:6C:AF:D2:7E:B3:59:1B:86:37:5E
            X509v3 Authority Key Identifier: 
                keyid:4D:C7:5F:65:57:A4:85:B9:66:01:FE:4C:87:1A:55:7F:46:41:AF:00

    Signature Algorithm: sha256WithRSAEncryption
         12:cb:fc:cd:45:d1:ca:4c:7f:21:71:ff:d0:a7:cb:2a:21:57:
         6e:40:89:17:c1:f1:ec:cb:79:cc:93:0e:6c:ad:eb:dd:c0:e9:
         67:3f:a6:00:ce:85:44:5e:69:33:85:e7:13:b0:5e:76:96:08:
         bd:18:bc:4c:bd:c0:4f:49:a8:b5:64:22:f3:31:91:cf:ff:53:
         b6:12:aa:01:d6:c0:70:ee:21:85:e4:82:cc:2b:4b:71:9c:de:
         ef:a5:80:82:b1:38:02:1f:7a:84:44:9f:9b:64:51:16:72:63:
         8a:64:de:79:3b:20:05:2f:de:43:17:31:2b:06:0a:78:4f:af:
         9a:66:f2:1e:e6:e4:df:0b:7c:7a:d8:ea:8f:00:c5:0b:be:7a:
         6c:89:76:32:83:2b:8c:6a:46:44:37:05:e5:b1:df:43:fe:e6:
         81:88:5b:c5:b1:7a:aa:03:ac:52:04:69:95:96:b3:ee:fe:a8:
         b7:a0:98:33:c5:2e:5f:f1:59:16:65:65:94:89:e8:2d:8a:04:
         e3:66:45:04:e0:e6:f5:be:37:ac:1d:09:f8:ca:f0:58:a3:f2:
         98:84:b1:60:95:b9:c0:38:c5:fc:e3:d2:7b:98:c6:b6:ca:9a:
         d9:4d:51:1a:b7:6f:16:7d:80:27:d0:7f:90:55:7a:aa:f6:e3:
         08:bb:1c:30:f0:ef:41:88:de:58:ae:07:86:aa:f6:64:bb:a6:
         e7:4e:96:36:2e:d2:80:11:a8:3c:1d:ea:67:90:27:0c:fa:62:
         c9:6d:31:7a:c5:48:d4:c0:9f:64:b2:cb:89:7e:95:77:31:ad:
         b4:8d:04:6a:d3:b1:a2:5d:bd:1e:fb:8c:23:ba:cc:7c:0c:0c:
         b2:9b:1d:a2:0b:3f:fe:a4:cf:6e:7c:05:6f:c5:bc:4e:d1:cd:
         90:4b:96:5f:12:cb:d6:d4:ac:72:fc:78:72:14:0e:6d:65:16:
         df:00:b8:32:70:07:e9:95:04:2d:5e:2e:28:30:b2:c2:ad:1b:
         38:77:d2:3e:1c:52:8b:db:44:fb:9e:9d:d2:a3:e0:0b:44:1a:
         fb:a5:ca:21:92:c5:9a:f5:b7:59:ac:4c:6c:42:c7:82:06:2c:
         95:b2:d1:4c:7c:a9:02:02:67:8b:82:ab:b9:f8:9e:6f:d5:bd:
         26:95:15:1a:b5:64:07:e5:c6:aa:61:c3:c7:74:88:30:b4:81:
         93:22:a2:07:57:78:39:4c:fe:8e:ac:94:fc:fb:b9:9c:77:af:
         0b:95:3e:cc:0c:ed:08:35:d1:88:ab:2f:0b:43:d6:f5:7f:d0:
         f6:94:1f:21:f9:4a:31:5b:d7:d2:c4:34:6d:e0:63:6e:f3:e6:
         c0:d0:e2:84:f9:da:53:7b
-----BEGIN CERTIFICATE-----
MIIFSjCCAzKgAwIBAgIEEjRWfDANBgkqhkiG9w0BAQsFADAnMSUwIwYDVQQDDBxT
UksyX3NoYTI1Nl80MDk2XzY1NTM3X3YzX2NhMB4XDTIyMDkyMDEzMTUyOVoXDTQy
MDkxNTEzMTUyOVowKjEoMCYGA1UEAwwfQ1NGMl8xX3NoYTI1Nl80MDk2XzY1NTM3
X3YzX3VzcjCCAiIwDQYJKoZIhvcNAQEBBQADggIPADCCAgoCggIBAMo4Oa9RL4by
491FiNQTKyAiRFfWtA5XeXdcl5qhI/HLfHp9npgCKc8K/awtVcdXxVxO/KUV120w
BVCSRG5G1NBgk9fTGv1I+YGoI1thoESJZEx/MadoSMLJXbbBsomTzCxuHWFw7/6/
8YfpF9gYFE0JG6zaPzCWgVR4tJZgRu5vx4BdmI9fgN6iHxnGIvM9Oi5rwGwqynnd
rsSHVCGBPVwStwRpRgttrz2bja761zcSwYunoh+qFFvLexGoFloNnoxjkoYXYiAv
hWsXnq3faUahWzse8EXodgrIpSg+VKOWHgjhrbAmtTuTCDky11AgnRm4gXuTW5He
xoIQ2TtlRseSsWNfYLu0M35NKRDAIjiDQEd9bN6qURj1Ge051bGHMoJizjJkvCWR
WNVLvODlwcUtdtf9ipmzfmKF3VjEPHtgQRnzGfq9sNSMXoq5hMyUv66ijH50aOm4
Fs5FwJLaUHUM4wczbLK9EQ7iweL+cXMApE346LL+HrKJQ/MxlwbPr6le3b55fNTK
QEUZlnFehpC4T0JGBI7G5RkFXKk7QneLNZKm1e5MbCPXvljJA5JhRSOQtE2eqQQs
oMbmCWlqmboE+ZYNk9OWjyfaKDwUmfM14ylVEJjE27RpRIRq7pQde7HJvrrQunbN
4IRaR12kYzpjz8vq8e7TbRO74bGQcHOhAgMBAAGjezB5MAkGA1UdEwQCMAAwLAYJ
YIZIAYb4QgENBB8WHU9wZW5TU0wgR2VuZXJhdGVkIENlcnRpZmljYXRlMB0GA1Ud
DgQWBBTMGjHGgnZllSfQbK/SfrNZG4Y3XjAfBgNVHSMEGDAWgBRNx19lV6SFuWYB
/kyHGlV/RkGvADANBgkqhkiG9w0BAQsFAAOCAgEAEsv8zUXRykx/IXH/0KfLKiFX
bkCJF8Hx7Mt5zJMObK3r3cDpZz+mAM6FRF5pM4XnE7BedpYIvRi8TL3AT0motWQi
8zGRz/9TthKqAdbAcO4hheSCzCtLcZze76WAgrE4Ah96hESfm2RRFnJjimTeeTsg
BS/eQxcxKwYKeE+vmmbyHubk3wt8etjqjwDFC756bIl2MoMrjGpGRDcF5bHfQ/7m
gYhbxbF6qgOsUgRplZaz7v6ot6CYM8UuX/FZFmVllInoLYoE42ZFBODm9b43rB0J
+MrwWKPymISxYJW5wDjF/OPSe5jGtsqa2U1RGrdvFn2AJ9B/kFV6qvbjCLscMPDv
QYjeWK4Hhqr2ZLum506WNi7SgBGoPB3qZ5AnDPpiyW0xesVI1MCfZLLLiX6VdzGt
tI0EatOxol29HvuMI7rMfAwMspsdogs//qTPbnwFb8W8TtHNkEuWXxLL1tSscvx4
chQObWUW3wC4MnAH6ZUELV4uKDCywq0bOHfSPhxSi9tE+56d0qPgC0Qa+6XKIZLF
mvW3WaxMbELHggYslbLRTHypAgJni4Krufieb9W9JpUVGrVkB+XGqmHDx3SIMLSB
kyKiB1d4OUz+jqyU/Pu5nHevC5U+zAztCDXRiKsvC0PW9X/Q9pQfIflKMVvX0sQ0
beBjbvPmwNDihPnaU3s=
-----END CERTIFICATE-----
